
digitpic:     file format elf32-littlearm


Disassembly of section .init:

020010b4 <_init>:
 20010b4:	e92d4001 	push	{r0, lr}
 20010b8:	e8bd4001 	pop	{r0, lr}
 20010bc:	e12fff1e 	bx	lr

Disassembly of section .plt:

020010c0 <.plt>:
 20010c0:	e52de004 	push	{lr}		; (str lr, [sp, #-4]!)
 20010c4:	e59fe004 	ldr	lr, [pc, #4]	; 20010d0 <.plt+0x10>
 20010c8:	e08fe00e 	add	lr, pc, lr
 20010cc:	e5bef008 	ldr	pc, [lr, #8]!
 20010d0:	0001af30 	andeq	sl, r1, r0, lsr pc

020010d4 <opendir@plt>:
 20010d4:	e28fc600 	add	ip, pc, #0, 12
 20010d8:	e28cca1a 	add	ip, ip, #106496	; 0x1a000
 20010dc:	e5bcff30 	ldr	pc, [ip, #3888]!	; 0xf30

020010e0 <vsprintf@plt>:
 20010e0:	e28fc600 	add	ip, pc, #0, 12
 20010e4:	e28cca1a 	add	ip, ip, #106496	; 0x1a000
 20010e8:	e5bcff28 	ldr	pc, [ip, #3880]!	; 0xf28

020010ec <ioctl@plt>:
 20010ec:	e28fc600 	add	ip, pc, #0, 12
 20010f0:	e28cca1a 	add	ip, ip, #106496	; 0x1a000
 20010f4:	e5bcff20 	ldr	pc, [ip, #3872]!	; 0xf20

020010f8 <tcsetattr@plt>:
 20010f8:	e28fc600 	add	ip, pc, #0, 12
 20010fc:	e28cca1a 	add	ip, ip, #106496	; 0x1a000
 2001100:	e5bcff18 	ldr	pc, [ip, #3864]!	; 0xf18

02001104 <snprintf@plt>:
 2001104:	e28fc600 	add	ip, pc, #0, 12
 2001108:	e28cca1a 	add	ip, ip, #106496	; 0x1a000
 200110c:	e5bcff10 	ldr	pc, [ip, #3856]!	; 0xf10

02001110 <__deregister_frame_info@plt>:
 2001110:	e28fc600 	add	ip, pc, #0, 12
 2001114:	e28cca1a 	add	ip, ip, #106496	; 0x1a000
 2001118:	e5bcff08 	ldr	pc, [ip, #3848]!	; 0xf08

0200111c <strcmp@plt>:
 200111c:	e28fc600 	add	ip, pc, #0, 12
 2001120:	e28cca1a 	add	ip, ip, #106496	; 0x1a000
 2001124:	e5bcff00 	ldr	pc, [ip, #3840]!	; 0xf00

02001128 <memset@plt>:
 2001128:	e28fc600 	add	ip, pc, #0, 12
 200112c:	e28cca1a 	add	ip, ip, #106496	; 0x1a000
 2001130:	e5bcfef8 	ldr	pc, [ip, #3832]!	; 0xef8

02001134 <__fstat_time64@plt>:
 2001134:	e28fc600 	add	ip, pc, #0, 12
 2001138:	e28cca1a 	add	ip, ip, #106496	; 0x1a000
 200113c:	e5bcfef0 	ldr	pc, [ip, #3824]!	; 0xef0

02001140 <alphasort@plt>:
 2001140:	e28fc600 	add	ip, pc, #0, 12
 2001144:	e28cca1a 	add	ip, ip, #106496	; 0x1a000
 2001148:	e5bcfee8 	ldr	pc, [ip, #3816]!	; 0xee8

0200114c <recvfrom@plt>:
 200114c:	e28fc600 	add	ip, pc, #0, 12
 2001150:	e28cca1a 	add	ip, ip, #106496	; 0x1a000
 2001154:	e5bcfee0 	ldr	pc, [ip, #3808]!	; 0xee0

02001158 <jpeg_abort_decompress@plt>:
 2001158:	e28fc600 	add	ip, pc, #0, 12
 200115c:	e28cca1a 	add	ip, ip, #106496	; 0x1a000
 2001160:	e5bcfed8 	ldr	pc, [ip, #3800]!	; 0xed8

02001164 <FT_Load_Char@plt>:
 2001164:	e28fc600 	add	ip, pc, #0, 12
 2001168:	e28cca1a 	add	ip, ip, #106496	; 0x1a000
 200116c:	e5bcfed0 	ldr	pc, [ip, #3792]!	; 0xed0

02001170 <malloc@plt>:
 2001170:	e28fc600 	add	ip, pc, #0, 12
 2001174:	e28cca1a 	add	ip, ip, #106496	; 0x1a000
 2001178:	e5bcfec8 	ldr	pc, [ip, #3784]!	; 0xec8

0200117c <pthread_join@plt>:
 200117c:	e28fc600 	add	ip, pc, #0, 12
 2001180:	e28cca1a 	add	ip, ip, #106496	; 0x1a000
 2001184:	e5bcfec0 	ldr	pc, [ip, #3776]!	; 0xec0

02001188 <strncmp@plt>:
 2001188:	e28fc600 	add	ip, pc, #0, 12
 200118c:	e28cca1a 	add	ip, ip, #106496	; 0x1a000
 2001190:	e5bcfeb8 	ldr	pc, [ip, #3768]!	; 0xeb8

02001194 <strcpy@plt>:
 2001194:	e28fc600 	add	ip, pc, #0, 12
 2001198:	e28cca1a 	add	ip, ip, #106496	; 0x1a000
 200119c:	e5bcfeb0 	ldr	pc, [ip, #3760]!	; 0xeb0

020011a0 <strrchr@plt>:
 20011a0:	e28fc600 	add	ip, pc, #0, 12
 20011a4:	e28cca1a 	add	ip, ip, #106496	; 0x1a000
 20011a8:	e5bcfea8 	ldr	pc, [ip, #3752]!	; 0xea8

020011ac <pthread_create@plt>:
 20011ac:	e28fc600 	add	ip, pc, #0, 12
 20011b0:	e28cca1a 	add	ip, ip, #106496	; 0x1a000
 20011b4:	e5bcfea0 	ldr	pc, [ip, #3744]!	; 0xea0

020011b8 <fclose@plt>:
 20011b8:	e28fc600 	add	ip, pc, #0, 12
 20011bc:	e28cca1a 	add	ip, ip, #106496	; 0x1a000
 20011c0:	e5bcfe98 	ldr	pc, [ip, #3736]!	; 0xe98

020011c4 <setjmp@plt>:
 20011c4:	e28fc600 	add	ip, pc, #0, 12
 20011c8:	e28cca1a 	add	ip, ip, #106496	; 0x1a000
 20011cc:	e5bcfe90 	ldr	pc, [ip, #3728]!	; 0xe90

020011d0 <jpeg_stdio_src@plt>:
 20011d0:	e28fc600 	add	ip, pc, #0, 12
 20011d4:	e28cca1a 	add	ip, ip, #106496	; 0x1a000
 20011d8:	e5bcfe88 	ldr	pc, [ip, #3720]!	; 0xe88

020011dc <sleep@plt>:
 20011dc:	e28fc600 	add	ip, pc, #0, 12
 20011e0:	e28cca1a 	add	ip, ip, #106496	; 0x1a000
 20011e4:	e5bcfe80 	ldr	pc, [ip, #3712]!	; 0xe80

020011e8 <open@plt>:
 20011e8:	e28fc600 	add	ip, pc, #0, 12
 20011ec:	e28cca1a 	add	ip, ip, #106496	; 0x1a000
 20011f0:	e5bcfe78 	ldr	pc, [ip, #3704]!	; 0xe78

020011f4 <strstr@plt>:
 20011f4:	e28fc600 	add	ip, pc, #0, 12
 20011f8:	e28cca1a 	add	ip, ip, #106496	; 0x1a000
 20011fc:	e5bcfe70 	ldr	pc, [ip, #3696]!	; 0xe70

02001200 <munmap@plt>:
 2001200:	e28fc600 	add	ip, pc, #0, 12
 2001204:	e28cca1a 	add	ip, ip, #106496	; 0x1a000
 2001208:	e5bcfe68 	ldr	pc, [ip, #3688]!	; 0xe68

0200120c <pthread_cond_wait@plt>:
 200120c:	e28fc600 	add	ip, pc, #0, 12
 2001210:	e28cca1a 	add	ip, ip, #106496	; 0x1a000
 2001214:	e5bcfe60 	ldr	pc, [ip, #3680]!	; 0xe60

02001218 <strchr@plt>:
 2001218:	e28fc600 	add	ip, pc, #0, 12
 200121c:	e28cca1a 	add	ip, ip, #106496	; 0x1a000
 2001220:	e5bcfe58 	ldr	pc, [ip, #3672]!	; 0xe58

02001224 <FT_Set_Pixel_Sizes@plt>:
 2001224:	e28fc600 	add	ip, pc, #0, 12
 2001228:	e28cca1a 	add	ip, ip, #106496	; 0x1a000
 200122c:	e5bcfe50 	ldr	pc, [ip, #3664]!	; 0xe50

02001230 <bind@plt>:
 2001230:	e28fc600 	add	ip, pc, #0, 12
 2001234:	e28cca1a 	add	ip, ip, #106496	; 0x1a000
 2001238:	e5bcfe48 	ldr	pc, [ip, #3656]!	; 0xe48

0200123c <poll@plt>:
 200123c:	e28fc600 	add	ip, pc, #0, 12
 2001240:	e28cca1a 	add	ip, ip, #106496	; 0x1a000
 2001244:	e5bcfe40 	ldr	pc, [ip, #3648]!	; 0xe40

02001248 <printf@plt>:
 2001248:	e28fc600 	add	ip, pc, #0, 12
 200124c:	e28cca1a 	add	ip, ip, #106496	; 0x1a000
 2001250:	e5bcfe38 	ldr	pc, [ip, #3640]!	; 0xe38

02001254 <__libc_start_main@plt>:
 2001254:	e28fc600 	add	ip, pc, #0, 12
 2001258:	e28cca1a 	add	ip, ip, #106496	; 0x1a000
 200125c:	e5bcfe30 	ldr	pc, [ip, #3632]!	; 0xe30

02001260 <jpeg_start_decompress@plt>:
 2001260:	e28fc600 	add	ip, pc, #0, 12
 2001264:	e28cca1a 	add	ip, ip, #106496	; 0x1a000
 2001268:	e5bcfe28 	ldr	pc, [ip, #3624]!	; 0xe28

0200126c <strncpy@plt>:
 200126c:	e28fc600 	add	ip, pc, #0, 12
 2001270:	e28cca1a 	add	ip, ip, #106496	; 0x1a000
 2001274:	e5bcfe20 	ldr	pc, [ip, #3616]!	; 0xe20

02001278 <fgetc@plt>:
 2001278:	e28fc600 	add	ip, pc, #0, 12
 200127c:	e28cca1a 	add	ip, ip, #106496	; 0x1a000
 2001280:	e5bcfe18 	ldr	pc, [ip, #3608]!	; 0xe18

02001284 <jpeg_CreateDecompress@plt>:
 2001284:	e28fc600 	add	ip, pc, #0, 12
 2001288:	e28cca1a 	add	ip, ip, #106496	; 0x1a000
 200128c:	e5bcfe10 	ldr	pc, [ip, #3600]!	; 0xe10

02001290 <__register_frame_info@plt>:
 2001290:	e28fc600 	add	ip, pc, #0, 12
 2001294:	e28cca1a 	add	ip, ip, #106496	; 0x1a000
 2001298:	e5bcfe08 	ldr	pc, [ip, #3592]!	; 0xe08

0200129c <raise@plt>:
 200129c:	e28fc600 	add	ip, pc, #0, 12
 20012a0:	e28cca1a 	add	ip, ip, #106496	; 0x1a000
 20012a4:	e5bcfe00 	ldr	pc, [ip, #3584]!	; 0xe00

020012a8 <tcgetattr@plt>:
 20012a8:	e28fc600 	add	ip, pc, #0, 12
 20012ac:	e28cca1a 	add	ip, ip, #106496	; 0x1a000
 20012b0:	e5bcfdf8 	ldr	pc, [ip, #3576]!	; 0xdf8

020012b4 <jpeg_std_error@plt>:
 20012b4:	e28fc600 	add	ip, pc, #0, 12
 20012b8:	e28cca1a 	add	ip, ip, #106496	; 0x1a000
 20012bc:	e5bcfdf0 	ldr	pc, [ip, #3568]!	; 0xdf0

020012c0 <socket@plt>:
 20012c0:	e28fc600 	add	ip, pc, #0, 12
 20012c4:	e28cca1a 	add	ip, ip, #106496	; 0x1a000
 20012c8:	e5bcfde8 	ldr	pc, [ip, #3560]!	; 0xde8

020012cc <close@plt>:
 20012cc:	e28fc600 	add	ip, pc, #0, 12
 20012d0:	e28cca1a 	add	ip, ip, #106496	; 0x1a000
 20012d4:	e5bcfde0 	ldr	pc, [ip, #3552]!	; 0xde0

020012d8 <jpeg_read_header@plt>:
 20012d8:	e28fc600 	add	ip, pc, #0, 12
 20012dc:	e28cca1a 	add	ip, ip, #106496	; 0x1a000
 20012e0:	e5bcfdd8 	ldr	pc, [ip, #3544]!	; 0xdd8

020012e4 <jpeg_finish_decompress@plt>:
 20012e4:	e28fc600 	add	ip, pc, #0, 12
 20012e8:	e28cca1a 	add	ip, ip, #106496	; 0x1a000
 20012ec:	e5bcfdd0 	ldr	pc, [ip, #3536]!	; 0xdd0

020012f0 <htons@plt>:
 20012f0:	e28fc600 	add	ip, pc, #0, 12
 20012f4:	e28cca1a 	add	ip, ip, #106496	; 0x1a000
 20012f8:	e5bcfdc8 	ldr	pc, [ip, #3528]!	; 0xdc8

020012fc <__errno_location@plt>:
 20012fc:	e28fc600 	add	ip, pc, #0, 12
 2001300:	e28cca1a 	add	ip, ip, #106496	; 0x1a000
 2001304:	e5bcfdc0 	ldr	pc, [ip, #3520]!	; 0xdc0

02001308 <pthread_mutex_unlock@plt>:
 2001308:	e28fc600 	add	ip, pc, #0, 12
 200130c:	e28cca1a 	add	ip, ip, #106496	; 0x1a000
 2001310:	e5bcfdb8 	ldr	pc, [ip, #3512]!	; 0xdb8

02001314 <__gettimeofday_time64@plt>:
 2001314:	e28fc600 	add	ip, pc, #0, 12
 2001318:	e28cca1a 	add	ip, ip, #106496	; 0x1a000
 200131c:	e5bcfdb0 	ldr	pc, [ip, #3504]!	; 0xdb0

02001320 <pthread_cond_signal@plt>:
 2001320:	e28fc600 	add	ip, pc, #0, 12
 2001324:	e28cca1a 	add	ip, ip, #106496	; 0x1a000
 2001328:	e5bcfda8 	ldr	pc, [ip, #3496]!	; 0xda8

0200132c <pthread_mutex_lock@plt>:
 200132c:	e28fc600 	add	ip, pc, #0, 12
 2001330:	e28cca1a 	add	ip, ip, #106496	; 0x1a000
 2001334:	e5bcfda0 	ldr	pc, [ip, #3488]!	; 0xda0

02001338 <sendto@plt>:
 2001338:	e28fc600 	add	ip, pc, #0, 12
 200133c:	e28cca1a 	add	ip, ip, #106496	; 0x1a000
 2001340:	e5bcfd98 	ldr	pc, [ip, #3480]!	; 0xd98

02001344 <free@plt>:
 2001344:	e28fc600 	add	ip, pc, #0, 12
 2001348:	e28cca1a 	add	ip, ip, #106496	; 0x1a000
 200134c:	e5bcfd90 	ldr	pc, [ip, #3472]!	; 0xd90

02001350 <puts@plt>:
 2001350:	e28fc600 	add	ip, pc, #0, 12
 2001354:	e28cca1a 	add	ip, ip, #106496	; 0x1a000
 2001358:	e5bcfd88 	ldr	pc, [ip, #3464]!	; 0xd88

0200135c <strerror@plt>:
 200135c:	e28fc600 	add	ip, pc, #0, 12
 2001360:	e28cca1a 	add	ip, ip, #106496	; 0x1a000
 2001364:	e5bcfd80 	ldr	pc, [ip, #3456]!	; 0xd80

02001368 <fopen@plt>:
 2001368:	e28fc600 	add	ip, pc, #0, 12
 200136c:	e28cca1a 	add	ip, ip, #106496	; 0x1a000
 2001370:	e5bcfd78 	ldr	pc, [ip, #3448]!	; 0xd78

02001374 <longjmp@plt>:
 2001374:	e28fc600 	add	ip, pc, #0, 12
 2001378:	e28cca1a 	add	ip, ip, #106496	; 0x1a000
 200137c:	e5bcfd70 	ldr	pc, [ip, #3440]!	; 0xd70

02001380 <fileno@plt>:
 2001380:	e28fc600 	add	ip, pc, #0, 12
 2001384:	e28cca1a 	add	ip, ip, #106496	; 0x1a000
 2001388:	e5bcfd68 	ldr	pc, [ip, #3432]!	; 0xd68

0200138c <FT_Init_FreeType@plt>:
 200138c:	e28fc600 	add	ip, pc, #0, 12
 2001390:	e28cca1a 	add	ip, ip, #106496	; 0x1a000
 2001394:	e5bcfd60 	ldr	pc, [ip, #3424]!	; 0xd60

02001398 <FT_New_Face@plt>:
 2001398:	e28fc600 	add	ip, pc, #0, 12
 200139c:	e28cca1a 	add	ip, ip, #106496	; 0x1a000
 20013a0:	e5bcfd58 	ldr	pc, [ip, #3416]!	; 0xd58

020013a4 <jpeg_read_scanlines@plt>:
 20013a4:	e28fc600 	add	ip, pc, #0, 12
 20013a8:	e28cca1a 	add	ip, ip, #106496	; 0x1a000
 20013ac:	e5bcfd50 	ldr	pc, [ip, #3408]!	; 0xd50

020013b0 <memcpy@plt>:
 20013b0:	e28fc600 	add	ip, pc, #0, 12
 20013b4:	e28cca1a 	add	ip, ip, #106496	; 0x1a000
 20013b8:	e5bcfd48 	ldr	pc, [ip, #3400]!	; 0xd48

020013bc <strlen@plt>:
 20013bc:	e28fc600 	add	ip, pc, #0, 12
 20013c0:	e28cca1a 	add	ip, ip, #106496	; 0x1a000
 20013c4:	e5bcfd40 	ldr	pc, [ip, #3392]!	; 0xd40

020013c8 <scandir@plt>:
 20013c8:	e28fc600 	add	ip, pc, #0, 12
 20013cc:	e28cca1a 	add	ip, ip, #106496	; 0x1a000
 20013d0:	e5bcfd38 	ldr	pc, [ip, #3384]!	; 0xd38

020013d4 <mmap@plt>:
 20013d4:	e28fc600 	add	ip, pc, #0, 12
 20013d8:	e28cca1a 	add	ip, ip, #106496	; 0x1a000
 20013dc:	e5bcfd30 	ldr	pc, [ip, #3376]!	; 0xd30

020013e0 <fseek@plt>:
 20013e0:	e28fc600 	add	ip, pc, #0, 12
 20013e4:	e28cca1a 	add	ip, ip, #106496	; 0x1a000
 20013e8:	e5bcfd28 	ldr	pc, [ip, #3368]!	; 0xd28

020013ec <jpeg_destroy_decompress@plt>:
 20013ec:	e28fc600 	add	ip, pc, #0, 12
 20013f0:	e28cca1a 	add	ip, ip, #106496	; 0x1a000
 20013f4:	e5bcfd20 	ldr	pc, [ip, #3360]!	; 0xd20

Disassembly of section .text:

020013f8 <main>:
 20013f8:	e92d4070 	push	{r4, r5, r6, lr}
 20013fc:	e1a04000 	mov	r4, r0
 2001400:	e1a05001 	mov	r5, r1
 2001404:	eb000772 	bl	20031d4 <DebugInit>
 2001408:	eb00075f 	bl	200318c <InitDebugChanel>
 200140c:	e3540002 	cmp	r4, #2
 2001410:	1a00001f 	bne	2001494 <main+0x9c>
 2001414:	eb00021b 	bl	2001c88 <DisplayInit>
 2001418:	e30a0aac 	movw	r0, #43692	; 0xaaac
 200141c:	e3400200 	movt	r0, #512	; 0x200
 2001420:	eb0000bd 	bl	200171c <SelectAndInitDefaultDispDev>
 2001424:	e3a00005 	mov	r0, #5
 2001428:	eb0000de 	bl	20017a8 <AllocVideoMem>
 200142c:	eb000650 	bl	2002d74 <InputInit>
 2001430:	eb00061d 	bl	2002cac <AllInputDevicesInit>
 2001434:	eb0003af 	bl	20022f8 <EncodingInit>
 2001438:	eb0004fb 	bl	200282c <FontsInit>
 200143c:	e3500000 	cmp	r0, #0
 2001440:	1a000026 	bne	20014e0 <main+0xe8>
 2001444:	e30a0ac4 	movw	r0, #43716	; 0xaac4
 2001448:	e5951004 	ldr	r1, [r5, #4]
 200144c:	e3a02018 	mov	r2, #24
 2001450:	e3400200 	movt	r0, #512	; 0x200
 2001454:	eb0004e4 	bl	20027ec <SetFontsDetail>
 2001458:	e3500000 	cmp	r0, #0
 200145c:	0a000002 	beq	200146c <main+0x74>
 2001460:	e30a0adc 	movw	r0, #43740	; 0xaadc
 2001464:	e3400200 	movt	r0, #512	; 0x200
 2001468:	eb000700 	bl	2003070 <DebugPrint>
 200146c:	eb000af6 	bl	200404c <PicFmtsInit>
 2001470:	eb000dfc 	bl	2004c68 <PagesInit>
 2001474:	e30a0af4 	movw	r0, #43764	; 0xaaf4
 2001478:	e3400200 	movt	r0, #512	; 0x200
 200147c:	eb000d45 	bl	2004998 <Page>
 2001480:	e5903004 	ldr	r3, [r0, #4]
 2001484:	e3a00000 	mov	r0, #0
 2001488:	e12fff33 	blx	r3
 200148c:	e3a00000 	mov	r0, #0
 2001490:	e8bd8070 	pop	{r4, r5, r6, pc}
 2001494:	e30a0a90 	movw	r0, #43664	; 0xaa90
 2001498:	e3400200 	movt	r0, #512	; 0x200
 200149c:	eb0006f3 	bl	2003070 <DebugPrint>
 20014a0:	e5951000 	ldr	r1, [r5]
 20014a4:	e30a0a98 	movw	r0, #43672	; 0xaa98
 20014a8:	e3400200 	movt	r0, #512	; 0x200
 20014ac:	eb0006ef 	bl	2003070 <DebugPrint>
 20014b0:	eb0001f4 	bl	2001c88 <DisplayInit>
 20014b4:	e30a0aac 	movw	r0, #43692	; 0xaaac
 20014b8:	e3400200 	movt	r0, #512	; 0x200
 20014bc:	eb000096 	bl	200171c <SelectAndInitDefaultDispDev>
 20014c0:	e3a00005 	mov	r0, #5
 20014c4:	eb0000b7 	bl	20017a8 <AllocVideoMem>
 20014c8:	eb000629 	bl	2002d74 <InputInit>
 20014cc:	eb0005f6 	bl	2002cac <AllInputDevicesInit>
 20014d0:	eb000388 	bl	20022f8 <EncodingInit>
 20014d4:	eb0004d4 	bl	200282c <FontsInit>
 20014d8:	e3500000 	cmp	r0, #0
 20014dc:	0a000002 	beq	20014ec <main+0xf4>
 20014e0:	e30a0ab0 	movw	r0, #43696	; 0xaab0
 20014e4:	e3400200 	movt	r0, #512	; 0x200
 20014e8:	eb0006e0 	bl	2003070 <DebugPrint>
 20014ec:	e3540001 	cmp	r4, #1
 20014f0:	caffffd3 	bgt	2001444 <main+0x4c>
 20014f4:	e30a1ad0 	movw	r1, #43728	; 0xaad0
 20014f8:	e30a0ac4 	movw	r0, #43716	; 0xaac4
 20014fc:	e3401200 	movt	r1, #512	; 0x200
 2001500:	e3a02018 	mov	r2, #24
 2001504:	e3400200 	movt	r0, #512	; 0x200
 2001508:	eb0004b7 	bl	20027ec <SetFontsDetail>
 200150c:	eaffffd1 	b	2001458 <main+0x60>

02001510 <_start>:
 2001510:	e3a0b000 	mov	fp, #0
 2001514:	e3a0e000 	mov	lr, #0
 2001518:	e59f1010 	ldr	r1, [pc, #16]	; 2001530 <_start+0x20>
 200151c:	e08f1001 	add	r1, pc, r1
 2001520:	e1a0200d 	mov	r2, sp
 2001524:	e3c2c00f 	bic	ip, r2, #15
 2001528:	e1a0d00c 	mov	sp, ip
 200152c:	eb000000 	bl	2001534 <_start_c>
 2001530:	0001a9dc 	ldrdeq	sl, [r1], -ip

02001534 <_start_c>:
 2001534:	e92d4007 	push	{r0, r1, r2, lr}
 2001538:	e3a03000 	mov	r3, #0
 200153c:	e58d3004 	str	r3, [sp, #4]
 2001540:	e2802004 	add	r2, r0, #4
 2001544:	e59f3018 	ldr	r3, [pc, #24]	; 2001564 <_start_c+0x30>
 2001548:	e58d3000 	str	r3, [sp]
 200154c:	e59f3014 	ldr	r3, [pc, #20]	; 2001568 <_start_c+0x34>
 2001550:	e5901000 	ldr	r1, [r0]
 2001554:	e59f0010 	ldr	r0, [pc, #16]	; 200156c <_start_c+0x38>
 2001558:	ebffff3d 	bl	2001254 <__libc_start_main@plt>
 200155c:	e28dd00c 	add	sp, sp, #12
 2001560:	e49df004 	pop	{pc}		; (ldr pc, [sp], #4)
 2001564:	020099dc 	andeq	r9, r0, #220, 18	; 0x370000
 2001568:	020010b4 	andeq	r1, r0, #180	; 0xb4
 200156c:	020013f8 	andeq	r1, r0, #248, 6	; 0xe0000003

02001570 <deregister_tm_clones>:
 2001570:	e30c0784 	movw	r0, #51076	; 0xc784
 2001574:	e3400201 	movt	r0, #513	; 0x201
 2001578:	e30c3784 	movw	r3, #51076	; 0xc784
 200157c:	e3403201 	movt	r3, #513	; 0x201
 2001580:	e1530000 	cmp	r3, r0
 2001584:	012fff1e 	bxeq	lr
 2001588:	e3003000 	movw	r3, #0
 200158c:	e3403000 	movt	r3, #0
 2001590:	e3530000 	cmp	r3, #0
 2001594:	012fff1e 	bxeq	lr
 2001598:	e12fff13 	bx	r3

0200159c <register_tm_clones>:
 200159c:	e30c0784 	movw	r0, #51076	; 0xc784
 20015a0:	e3400201 	movt	r0, #513	; 0x201
 20015a4:	e30c1784 	movw	r1, #51076	; 0xc784
 20015a8:	e3401201 	movt	r1, #513	; 0x201
 20015ac:	e0411000 	sub	r1, r1, r0
 20015b0:	e1a01141 	asr	r1, r1, #2
 20015b4:	e0811fa1 	add	r1, r1, r1, lsr #31
 20015b8:	e1b010c1 	asrs	r1, r1, #1
 20015bc:	012fff1e 	bxeq	lr
 20015c0:	e3003000 	movw	r3, #0
 20015c4:	e3403000 	movt	r3, #0
 20015c8:	e3530000 	cmp	r3, #0
 20015cc:	012fff1e 	bxeq	lr
 20015d0:	e12fff13 	bx	r3

020015d4 <__do_global_dtors_aux>:
 20015d4:	e92d4010 	push	{r4, lr}
 20015d8:	e30c4788 	movw	r4, #51080	; 0xc788
 20015dc:	e3404201 	movt	r4, #513	; 0x201
 20015e0:	e5d43000 	ldrb	r3, [r4]
 20015e4:	e3530000 	cmp	r3, #0
 20015e8:	18bd8010 	popne	{r4, pc}
 20015ec:	ebffffdf 	bl	2001570 <deregister_tm_clones>
 20015f0:	e3003000 	movw	r3, #0
 20015f4:	e3403000 	movt	r3, #0
 20015f8:	e3530000 	cmp	r3, #0
 20015fc:	0a000002 	beq	200160c <__do_global_dtors_aux+0x38>
 2001600:	e30b02b4 	movw	r0, #45748	; 0xb2b4
 2001604:	e3400200 	movt	r0, #512	; 0x200
 2001608:	ebfffec0 	bl	2001110 <__deregister_frame_info@plt>
 200160c:	e3a03001 	mov	r3, #1
 2001610:	e5c43000 	strb	r3, [r4]
 2001614:	e8bd8010 	pop	{r4, pc}

02001618 <frame_dummy>:
 2001618:	e3003000 	movw	r3, #0
 200161c:	e3403000 	movt	r3, #0
 2001620:	e3530000 	cmp	r3, #0
 2001624:	0a000007 	beq	2001648 <frame_dummy+0x30>
 2001628:	e92d4010 	push	{r4, lr}
 200162c:	e30c178c 	movw	r1, #51084	; 0xc78c
 2001630:	e30b02b4 	movw	r0, #45748	; 0xb2b4
 2001634:	e3401201 	movt	r1, #513	; 0x201
 2001638:	e3400200 	movt	r0, #512	; 0x200
 200163c:	ebffff13 	bl	2001290 <__register_frame_info@plt>
 2001640:	e8bd4010 	pop	{r4, lr}
 2001644:	eaffffd4 	b	200159c <register_tm_clones>
 2001648:	eaffffd3 	b	200159c <register_tm_clones>

0200164c <RegisterDispOpr>:
 200164c:	e30c37a8 	movw	r3, #51112	; 0xc7a8
 2001650:	e3403201 	movt	r3, #513	; 0x201
 2001654:	e5932000 	ldr	r2, [r3]
 2001658:	e3520000 	cmp	r2, #0
 200165c:	05830000 	streq	r0, [r3]
 2001660:	05802028 	streq	r2, [r0, #40]	; 0x28
 2001664:	1a000001 	bne	2001670 <RegisterDispOpr+0x24>
 2001668:	ea000005 	b	2001684 <RegisterDispOpr+0x38>
 200166c:	e1a02003 	mov	r2, r3
 2001670:	e5923028 	ldr	r3, [r2, #40]	; 0x28
 2001674:	e3530000 	cmp	r3, #0
 2001678:	1afffffb 	bne	200166c <RegisterDispOpr+0x20>
 200167c:	e5820028 	str	r0, [r2, #40]	; 0x28
 2001680:	e5803028 	str	r3, [r0, #40]	; 0x28
 2001684:	e3a00000 	mov	r0, #0
 2001688:	e12fff1e 	bx	lr

0200168c <ShowDispOpr>:
 200168c:	e30c37a8 	movw	r3, #51112	; 0xc7a8
 2001690:	e3403201 	movt	r3, #513	; 0x201
 2001694:	e92d4070 	push	{r4, r5, r6, lr}
 2001698:	e5935000 	ldr	r5, [r3]
 200169c:	e3550000 	cmp	r5, #0
 20016a0:	08bd8070 	popeq	{r4, r5, r6, pc}
 20016a4:	e30a6afc 	movw	r6, #43772	; 0xaafc
 20016a8:	e3406200 	movt	r6, #512	; 0x200
 20016ac:	e3a04000 	mov	r4, #0
 20016b0:	e5952000 	ldr	r2, [r5]
 20016b4:	e1a01004 	mov	r1, r4
 20016b8:	e1a00006 	mov	r0, r6
 20016bc:	e2844001 	add	r4, r4, #1
 20016c0:	ebfffee0 	bl	2001248 <printf@plt>
 20016c4:	e5955028 	ldr	r5, [r5, #40]	; 0x28
 20016c8:	e3550000 	cmp	r5, #0
 20016cc:	1afffff7 	bne	20016b0 <ShowDispOpr+0x24>
 20016d0:	e8bd8070 	pop	{r4, r5, r6, pc}

020016d4 <GetDispOpr>:
 20016d4:	e30c37a8 	movw	r3, #51112	; 0xc7a8
 20016d8:	e3403201 	movt	r3, #513	; 0x201
 20016dc:	e92d4070 	push	{r4, r5, r6, lr}
 20016e0:	e5934000 	ldr	r4, [r3]
 20016e4:	e3540000 	cmp	r4, #0
 20016e8:	0a000009 	beq	2001714 <GetDispOpr+0x40>
 20016ec:	e1a05000 	mov	r5, r0
 20016f0:	ea000002 	b	2001700 <GetDispOpr+0x2c>
 20016f4:	e5944028 	ldr	r4, [r4, #40]	; 0x28
 20016f8:	e3540000 	cmp	r4, #0
 20016fc:	0a000004 	beq	2001714 <GetDispOpr+0x40>
 2001700:	e1a01005 	mov	r1, r5
 2001704:	e5940000 	ldr	r0, [r4]
 2001708:	ebfffe83 	bl	200111c <strcmp@plt>
 200170c:	e3500000 	cmp	r0, #0
 2001710:	1afffff7 	bne	20016f4 <GetDispOpr+0x20>
 2001714:	e1a00004 	mov	r0, r4
 2001718:	e8bd8070 	pop	{r4, r5, r6, pc}

0200171c <SelectAndInitDefaultDispDev>:
 200171c:	e92d4010 	push	{r4, lr}
 2001720:	ebffffeb 	bl	20016d4 <GetDispOpr>
 2001724:	e30c47a8 	movw	r4, #51112	; 0xc7a8
 2001728:	e3404201 	movt	r4, #513	; 0x201
 200172c:	e3500000 	cmp	r0, #0
 2001730:	e5840004 	str	r0, [r4, #4]
 2001734:	08bd8010 	popeq	{r4, pc}
 2001738:	e5903018 	ldr	r3, [r0, #24]
 200173c:	e12fff33 	blx	r3
 2001740:	e5943004 	ldr	r3, [r4, #4]
 2001744:	e3a00000 	mov	r0, #0
 2001748:	e8bd4010 	pop	{r4, lr}
 200174c:	e5933020 	ldr	r3, [r3, #32]
 2001750:	e12fff13 	bx	r3

02001754 <GetDefaultDispDev>:
 2001754:	e30c37a8 	movw	r3, #51112	; 0xc7a8
 2001758:	e3403201 	movt	r3, #513	; 0x201
 200175c:	e5930004 	ldr	r0, [r3, #4]
 2001760:	e12fff1e 	bx	lr

02001764 <GetDispResolution>:
 2001764:	e30c37a8 	movw	r3, #51112	; 0xc7a8
 2001768:	e3403201 	movt	r3, #513	; 0x201
 200176c:	e5933004 	ldr	r3, [r3, #4]
 2001770:	e3530000 	cmp	r3, #0
 2001774:	0a000009 	beq	20017a0 <GetDispResolution+0x3c>
 2001778:	e52de004 	push	{lr}		; (str lr, [sp, #-4]!)
 200177c:	e1a0c000 	mov	ip, r0
 2001780:	e593e004 	ldr	lr, [r3, #4]
 2001784:	e3a00000 	mov	r0, #0
 2001788:	e58ce000 	str	lr, [ip]
 200178c:	e593c008 	ldr	ip, [r3, #8]
 2001790:	e581c000 	str	ip, [r1]
 2001794:	e593300c 	ldr	r3, [r3, #12]
 2001798:	e5823000 	str	r3, [r2]
 200179c:	e49df004 	pop	{pc}		; (ldr pc, [sp], #4)
 20017a0:	e3e00000 	mvn	r0, #0
 20017a4:	e12fff1e 	bx	lr

020017a8 <AllocVideoMem>:
 20017a8:	e92d4ff0 	push	{r4, r5, r6, r7, r8, r9, sl, fp, lr}
 20017ac:	e30c67a8 	movw	r6, #51112	; 0xc7a8
 20017b0:	e3406201 	movt	r6, #513	; 0x201
 20017b4:	e24dd00c 	sub	sp, sp, #12
 20017b8:	e596a004 	ldr	sl, [r6, #4]
 20017bc:	e58d0000 	str	r0, [sp]
 20017c0:	e35a0000 	cmp	sl, #0
 20017c4:	0a00004b 	beq	20018f8 <AllocVideoMem+0x150>
 20017c8:	e99a0280 	ldmib	sl, {r7, r9}
 20017cc:	e59a800c 	ldr	r8, [sl, #12]
 20017d0:	e0040799 	mul	r4, r9, r7
 20017d4:	e0050798 	mul	r5, r8, r7
 20017d8:	e0040498 	mul	r4, r8, r4
 20017dc:	e2853007 	add	r3, r5, #7
 20017e0:	e3550000 	cmp	r5, #0
 20017e4:	b1a05003 	movlt	r5, r3
 20017e8:	e2843007 	add	r3, r4, #7
 20017ec:	e3540000 	cmp	r4, #0
 20017f0:	e1a051c5 	asr	r5, r5, #3
 20017f4:	b1a04003 	movlt	r4, r3
 20017f8:	e1a041c4 	asr	r4, r4, #3
 20017fc:	e3a0002c 	mov	r0, #44	; 0x2c
 2001800:	ebfffe5a 	bl	2001170 <malloc@plt>
 2001804:	e2503000 	subs	r3, r0, #0
 2001808:	0a00002f 	beq	20018cc <AllocVideoMem+0x124>
 200180c:	e59d2000 	ldr	r2, [sp]
 2001810:	e3a0b000 	mov	fp, #0
 2001814:	e59a0014 	ldr	r0, [sl, #20]
 2001818:	e3a01001 	mov	r1, #1
 200181c:	e3520000 	cmp	r2, #0
 2001820:	e5831004 	str	r1, [r3, #4]
 2001824:	e5837010 	str	r7, [r3, #16]
 2001828:	e5839014 	str	r9, [r3, #20]
 200182c:	e5830024 	str	r0, [r3, #36]	; 0x24
 2001830:	e5838018 	str	r8, [r3, #24]
 2001834:	e583501c 	str	r5, [r3, #28]
 2001838:	e5834020 	str	r4, [r3, #32]
 200183c:	e583b000 	str	fp, [r3]
 2001840:	e583b008 	str	fp, [r3, #8]
 2001844:	e583b00c 	str	fp, [r3, #12]
 2001848:	e5961008 	ldr	r1, [r6, #8]
 200184c:	0a000021 	beq	20018d8 <AllocVideoMem+0x130>
 2001850:	e5831028 	str	r1, [r3, #40]	; 0x28
 2001854:	c1a0a00b 	movgt	sl, fp
 2001858:	e3a01002 	mov	r1, #2
 200185c:	e5863008 	str	r3, [r6, #8]
 2001860:	e5831008 	str	r1, [r3, #8]
 2001864:	c284302c 	addgt	r3, r4, #44	; 0x2c
 2001868:	c58d3004 	strgt	r3, [sp, #4]
 200186c:	ca000010 	bgt	20018b4 <AllocVideoMem+0x10c>
 2001870:	ea00001d 	b	20018ec <AllocVideoMem+0x144>
 2001874:	e59d3000 	ldr	r3, [sp]
 2001878:	e596c008 	ldr	ip, [r6, #8]
 200187c:	e153000b 	cmp	r3, fp
 2001880:	e5801024 	str	r1, [r0, #36]	; 0x24
 2001884:	e580a000 	str	sl, [r0]
 2001888:	e580a004 	str	sl, [r0, #4]
 200188c:	e580a008 	str	sl, [r0, #8]
 2001890:	e580a00c 	str	sl, [r0, #12]
 2001894:	e5807010 	str	r7, [r0, #16]
 2001898:	e5809014 	str	r9, [r0, #20]
 200189c:	e5808018 	str	r8, [r0, #24]
 20018a0:	e580501c 	str	r5, [r0, #28]
 20018a4:	e5804020 	str	r4, [r0, #32]
 20018a8:	e580c028 	str	ip, [r0, #40]	; 0x28
 20018ac:	e5860008 	str	r0, [r6, #8]
 20018b0:	0a00000d 	beq	20018ec <AllocVideoMem+0x144>
 20018b4:	e59d0004 	ldr	r0, [sp, #4]
 20018b8:	e28bb001 	add	fp, fp, #1
 20018bc:	ebfffe2b 	bl	2001170 <malloc@plt>
 20018c0:	e3500000 	cmp	r0, #0
 20018c4:	e280102c 	add	r1, r0, #44	; 0x2c
 20018c8:	1affffe9 	bne	2001874 <AllocVideoMem+0xcc>
 20018cc:	e3e00000 	mvn	r0, #0
 20018d0:	e28dd00c 	add	sp, sp, #12
 20018d4:	e8bd8ff0 	pop	{r4, r5, r6, r7, r8, r9, sl, fp, pc}
 20018d8:	e59d0000 	ldr	r0, [sp]
 20018dc:	e5831028 	str	r1, [r3, #40]	; 0x28
 20018e0:	e5863008 	str	r3, [r6, #8]
 20018e4:	e28dd00c 	add	sp, sp, #12
 20018e8:	e8bd8ff0 	pop	{r4, r5, r6, r7, r8, r9, sl, fp, pc}
 20018ec:	e3a00000 	mov	r0, #0
 20018f0:	e28dd00c 	add	sp, sp, #12
 20018f4:	e8bd8ff0 	pop	{r4, r5, r6, r7, r8, r9, sl, fp, pc}
 20018f8:	e1a0500a 	mov	r5, sl
 20018fc:	e1a0400a 	mov	r4, sl
 2001900:	e1a0800a 	mov	r8, sl
 2001904:	e1a0900a 	mov	r9, sl
 2001908:	e1a0700a 	mov	r7, sl
 200190c:	eaffffba 	b	20017fc <AllocVideoMem+0x54>

02001910 <GetVideoMem>:
 2001910:	e30c37a8 	movw	r3, #51112	; 0xc7a8
 2001914:	e3403201 	movt	r3, #513	; 0x201
 2001918:	e593c008 	ldr	ip, [r3, #8]
 200191c:	e35c0000 	cmp	ip, #0
 2001920:	0a00001e 	beq	20019a0 <GetVideoMem+0x90>
 2001924:	e1a0300c 	mov	r3, ip
 2001928:	e5932008 	ldr	r2, [r3, #8]
 200192c:	e3520000 	cmp	r2, #0
 2001930:	1a000002 	bne	2001940 <GetVideoMem+0x30>
 2001934:	e5932000 	ldr	r2, [r3]
 2001938:	e1520000 	cmp	r2, r0
 200193c:	0a000020 	beq	20019c4 <GetVideoMem+0xb4>
 2001940:	e5933028 	ldr	r3, [r3, #40]	; 0x28
 2001944:	e3530000 	cmp	r3, #0
 2001948:	1afffff6 	bne	2001928 <GetVideoMem+0x18>
 200194c:	e1a0300c 	mov	r3, ip
 2001950:	e5932008 	ldr	r2, [r3, #8]
 2001954:	e3520000 	cmp	r2, #0
 2001958:	1a000002 	bne	2001968 <GetVideoMem+0x58>
 200195c:	e593200c 	ldr	r2, [r3, #12]
 2001960:	e3520000 	cmp	r2, #0
 2001964:	0a000025 	beq	2001a00 <GetVideoMem+0xf0>
 2001968:	e5933028 	ldr	r3, [r3, #40]	; 0x28
 200196c:	e3530000 	cmp	r3, #0
 2001970:	1afffff6 	bne	2001950 <GetVideoMem+0x40>
 2001974:	e59c3008 	ldr	r3, [ip, #8]
 2001978:	e3530000 	cmp	r3, #0
 200197c:	e1a0300c 	mov	r3, ip
 2001980:	1a000003 	bne	2001994 <GetVideoMem+0x84>
 2001984:	ea000014 	b	20019dc <GetVideoMem+0xcc>
 2001988:	e5932008 	ldr	r2, [r3, #8]
 200198c:	e3520000 	cmp	r2, #0
 2001990:	0a000011 	beq	20019dc <GetVideoMem+0xcc>
 2001994:	e5933028 	ldr	r3, [r3, #40]	; 0x28
 2001998:	e3530000 	cmp	r3, #0
 200199c:	1afffff9 	bne	2001988 <GetVideoMem+0x78>
 20019a0:	e3510000 	cmp	r1, #0
 20019a4:	0a00001c 	beq	2001a1c <GetVideoMem+0x10c>
 20019a8:	e3a03000 	mov	r3, #0
 20019ac:	e3a02002 	mov	r2, #2
 20019b0:	e1cc20f8 	strd	r2, [ip, #8]
 20019b4:	e1a0300c 	mov	r3, ip
 20019b8:	e58c0000 	str	r0, [ip]
 20019bc:	e1a00003 	mov	r0, r3
 20019c0:	e12fff1e 	bx	lr
 20019c4:	e3510000 	cmp	r1, #0
 20019c8:	e1a00003 	mov	r0, r3
 20019cc:	13a02002 	movne	r2, #2
 20019d0:	03a02001 	moveq	r2, #1
 20019d4:	e5832008 	str	r2, [r3, #8]
 20019d8:	e12fff1e 	bx	lr
 20019dc:	e3510000 	cmp	r1, #0
 20019e0:	e5830000 	str	r0, [r3]
 20019e4:	e3a02000 	mov	r2, #0
 20019e8:	e1a00003 	mov	r0, r3
 20019ec:	13a01002 	movne	r1, #2
 20019f0:	03a01001 	moveq	r1, #1
 20019f4:	e583200c 	str	r2, [r3, #12]
 20019f8:	e5831008 	str	r1, [r3, #8]
 20019fc:	e12fff1e 	bx	lr
 2001a00:	e3510000 	cmp	r1, #0
 2001a04:	e5830000 	str	r0, [r3]
 2001a08:	e1a00003 	mov	r0, r3
 2001a0c:	13a02002 	movne	r2, #2
 2001a10:	03a02001 	moveq	r2, #1
 2001a14:	e5832008 	str	r2, [r3, #8]
 2001a18:	e12fff1e 	bx	lr
 2001a1c:	e1a03001 	mov	r3, r1
 2001a20:	eaffffe5 	b	20019bc <GetVideoMem+0xac>

02001a24 <PutVideoMem>:
 2001a24:	e5902000 	ldr	r2, [r0]
 2001a28:	e3a03000 	mov	r3, #0
 2001a2c:	e5803008 	str	r3, [r0, #8]
 2001a30:	e3720001 	cmn	r2, #1
 2001a34:	0580300c 	streq	r3, [r0, #12]
 2001a38:	e12fff1e 	bx	lr

02001a3c <GetDevVideoMem>:
 2001a3c:	e30c37a8 	movw	r3, #51112	; 0xc7a8
 2001a40:	e3403201 	movt	r3, #513	; 0x201
 2001a44:	e5930008 	ldr	r0, [r3, #8]
 2001a48:	e3500000 	cmp	r0, #0
 2001a4c:	012fff1e 	bxeq	lr
 2001a50:	e5903004 	ldr	r3, [r0, #4]
 2001a54:	e3530000 	cmp	r3, #0
 2001a58:	112fff1e 	bxne	lr
 2001a5c:	e5900028 	ldr	r0, [r0, #40]	; 0x28
 2001a60:	e3500000 	cmp	r0, #0
 2001a64:	1afffff9 	bne	2001a50 <GetDevVideoMem+0x14>
 2001a68:	e12fff1e 	bx	lr

02001a6c <ClearVideoMem>:
 2001a6c:	e5902018 	ldr	r2, [r0, #24]
 2001a70:	e1a0c001 	mov	ip, r1
 2001a74:	e52de004 	push	{lr}		; (str lr, [sp, #-4]!)
 2001a78:	e3520010 	cmp	r2, #16
 2001a7c:	e5903024 	ldr	r3, [r0, #36]	; 0x24
 2001a80:	0a000016 	beq	2001ae0 <ClearVideoMem+0x74>
 2001a84:	e3520020 	cmp	r2, #32
 2001a88:	0a00000a 	beq	2001ab8 <ClearVideoMem+0x4c>
 2001a8c:	e3520008 	cmp	r2, #8
 2001a90:	0a000004 	beq	2001aa8 <ClearVideoMem+0x3c>
 2001a94:	e30a0b08 	movw	r0, #43784	; 0xab08
 2001a98:	e1a01002 	mov	r1, r2
 2001a9c:	e3400200 	movt	r0, #512	; 0x200
 2001aa0:	e49de004 	pop	{lr}		; (ldr lr, [sp], #4)
 2001aa4:	ea000571 	b	2003070 <DebugPrint>
 2001aa8:	e5902020 	ldr	r2, [r0, #32]
 2001aac:	e1a00003 	mov	r0, r3
 2001ab0:	e49de004 	pop	{lr}		; (ldr lr, [sp], #4)
 2001ab4:	eafffd9b 	b	2001128 <memset@plt>
 2001ab8:	e5902020 	ldr	r2, [r0, #32]
 2001abc:	e3520000 	cmp	r2, #0
 2001ac0:	d49df004 	pople	{pc}		; (ldrle pc, [sp], #4)
 2001ac4:	e1a02003 	mov	r2, r3
 2001ac8:	e482c004 	str	ip, [r2], #4
 2001acc:	e0421003 	sub	r1, r2, r3
 2001ad0:	e590e020 	ldr	lr, [r0, #32]
 2001ad4:	e15e0001 	cmp	lr, r1
 2001ad8:	cafffffa 	bgt	2001ac8 <ClearVideoMem+0x5c>
 2001adc:	e49df004 	pop	{pc}		; (ldr pc, [sp], #4)
 2001ae0:	e1a0e9a1 	lsr	lr, r1, #19
 2001ae4:	e5902020 	ldr	r2, [r0, #32]
 2001ae8:	e7e411d1 	ubfx	r1, r1, #3, #5
 2001aec:	e1a0c2ac 	lsr	ip, ip, #5
 2001af0:	e181158e 	orr	r1, r1, lr, lsl #11
 2001af4:	e20cce7e 	and	ip, ip, #2016	; 0x7e0
 2001af8:	e181c00c 	orr	ip, r1, ip
 2001afc:	e3520000 	cmp	r2, #0
 2001b00:	e6ffc07c 	uxth	ip, ip
 2001b04:	d49df004 	pople	{pc}		; (ldrle pc, [sp], #4)
 2001b08:	e2422001 	sub	r2, r2, #1
 2001b0c:	e3c22001 	bic	r2, r2, #1
 2001b10:	e2822002 	add	r2, r2, #2
 2001b14:	e0832002 	add	r2, r3, r2
 2001b18:	e0c3c0b2 	strh	ip, [r3], #2
 2001b1c:	e1520003 	cmp	r2, r3
 2001b20:	1afffffc 	bne	2001b18 <ClearVideoMem+0xac>
 2001b24:	e49df004 	pop	{pc}		; (ldr pc, [sp], #4)

02001b28 <ClearVideoMemRegion>:
 2001b28:	e92d47f0 	push	{r4, r5, r6, r7, r8, r9, sl, lr}
 2001b2c:	e5913000 	ldr	r3, [r1]
 2001b30:	e5906018 	ldr	r6, [r0, #24]
 2001b34:	e5915004 	ldr	r5, [r1, #4]
 2001b38:	e590e01c 	ldr	lr, [r0, #28]
 2001b3c:	e00c0396 	mul	ip, r6, r3
 2001b40:	e5907024 	ldr	r7, [r0, #36]	; 0x24
 2001b44:	e004059e 	mul	r4, lr, r5
 2001b48:	e35c0000 	cmp	ip, #0
 2001b4c:	e28c8007 	add	r8, ip, #7
 2001b50:	b1a0c008 	movlt	ip, r8
 2001b54:	e3560010 	cmp	r6, #16
 2001b58:	e08441cc 	add	r4, r4, ip, asr #3
 2001b5c:	e591c008 	ldr	ip, [r1, #8]
 2001b60:	e0874004 	add	r4, r7, r4
 2001b64:	0a00002e 	beq	2001c24 <ClearVideoMemRegion+0xfc>
 2001b68:	e3560020 	cmp	r6, #32
 2001b6c:	0a000019 	beq	2001bd8 <ClearVideoMemRegion+0xb0>
 2001b70:	e3560008 	cmp	r6, #8
 2001b74:	0a000004 	beq	2001b8c <ClearVideoMemRegion+0x64>
 2001b78:	e1a01006 	mov	r1, r6
 2001b7c:	e30a0b08 	movw	r0, #43784	; 0xab08
 2001b80:	e8bd47f0 	pop	{r4, r5, r6, r7, r8, r9, sl, lr}
 2001b84:	e3400200 	movt	r0, #512	; 0x200
 2001b88:	ea000538 	b	2003070 <DebugPrint>
 2001b8c:	e591e00c 	ldr	lr, [r1, #12]
 2001b90:	e155000e 	cmp	r5, lr
 2001b94:	c8bd87f0 	popgt	{r4, r5, r6, r7, r8, r9, sl, pc}
 2001b98:	e04c3003 	sub	r3, ip, r3
 2001b9c:	e1a06002 	mov	r6, r2
 2001ba0:	e2839001 	add	r9, r3, #1
 2001ba4:	e1a07001 	mov	r7, r1
 2001ba8:	e1a08000 	mov	r8, r0
 2001bac:	e1a02009 	mov	r2, r9
 2001bb0:	e1a00004 	mov	r0, r4
 2001bb4:	e1a01006 	mov	r1, r6
 2001bb8:	e2855001 	add	r5, r5, #1
 2001bbc:	ebfffd59 	bl	2001128 <memset@plt>
 2001bc0:	e597200c 	ldr	r2, [r7, #12]
 2001bc4:	e598301c 	ldr	r3, [r8, #28]
 2001bc8:	e1520005 	cmp	r2, r5
 2001bcc:	e0844003 	add	r4, r4, r3
 2001bd0:	aafffff5 	bge	2001bac <ClearVideoMemRegion+0x84>
 2001bd4:	e8bd87f0 	pop	{r4, r5, r6, r7, r8, r9, sl, pc}
 2001bd8:	e591600c 	ldr	r6, [r1, #12]
 2001bdc:	e1550006 	cmp	r5, r6
 2001be0:	c8bd87f0 	popgt	{r4, r5, r6, r7, r8, r9, sl, pc}
 2001be4:	e15c0003 	cmp	ip, r3
 2001be8:	ba000007 	blt	2001c0c <ClearVideoMemRegion+0xe4>
 2001bec:	e244e004 	sub	lr, r4, #4
 2001bf0:	e5ae2004 	str	r2, [lr, #4]!
 2001bf4:	e2833001 	add	r3, r3, #1
 2001bf8:	e591c008 	ldr	ip, [r1, #8]
 2001bfc:	e15c0003 	cmp	ip, r3
 2001c00:	aafffffa 	bge	2001bf0 <ClearVideoMemRegion+0xc8>
 2001c04:	e590e01c 	ldr	lr, [r0, #28]
 2001c08:	e591600c 	ldr	r6, [r1, #12]
 2001c0c:	e2855001 	add	r5, r5, #1
 2001c10:	e084400e 	add	r4, r4, lr
 2001c14:	e1560005 	cmp	r6, r5
 2001c18:	b8bd87f0 	poplt	{r4, r5, r6, r7, r8, r9, sl, pc}
 2001c1c:	e5913000 	ldr	r3, [r1]
 2001c20:	eaffffef 	b	2001be4 <ClearVideoMemRegion+0xbc>
 2001c24:	e1a009a2 	lsr	r0, r2, #19
 2001c28:	e591600c 	ldr	r6, [r1, #12]
 2001c2c:	e7e411d2 	ubfx	r1, r2, #3, #5
 2001c30:	e1a022a2 	lsr	r2, r2, #5
 2001c34:	e1811580 	orr	r1, r1, r0, lsl #11
 2001c38:	e2022e7e 	and	r2, r2, #2016	; 0x7e0
 2001c3c:	e1812002 	orr	r2, r1, r2
 2001c40:	e1550006 	cmp	r5, r6
 2001c44:	e6ff1072 	uxth	r1, r2
 2001c48:	c8bd87f0 	popgt	{r4, r5, r6, r7, r8, r9, sl, pc}
 2001c4c:	e04c7003 	sub	r7, ip, r3
 2001c50:	e2866001 	add	r6, r6, #1
 2001c54:	e1a07087 	lsl	r7, r7, #1
 2001c58:	e153000c 	cmp	r3, ip
 2001c5c:	d2442002 	suble	r2, r4, #2
 2001c60:	d0840007 	addle	r0, r4, r7
 2001c64:	ca000002 	bgt	2001c74 <ClearVideoMemRegion+0x14c>
 2001c68:	e1e210b2 	strh	r1, [r2, #2]!
 2001c6c:	e1500002 	cmp	r0, r2
 2001c70:	1afffffc 	bne	2001c68 <ClearVideoMemRegion+0x140>
 2001c74:	e2855001 	add	r5, r5, #1
 2001c78:	e084400e 	add	r4, r4, lr
 2001c7c:	e1560005 	cmp	r6, r5
 2001c80:	1afffff4 	bne	2001c58 <ClearVideoMemRegion+0x130>
 2001c84:	e8bd87f0 	pop	{r4, r5, r6, r7, r8, r9, sl, pc}

02001c88 <DisplayInit>:
 2001c88:	ea0000a9 	b	2001f34 <FBInit>

02001c8c <FBShowPage>:
 2001c8c:	e30c311c 	movw	r3, #49436	; 0xc11c
 2001c90:	e3403201 	movt	r3, #513	; 0x201
 2001c94:	e1a01000 	mov	r1, r0
 2001c98:	e5902020 	ldr	r2, [r0, #32]
 2001c9c:	e92d4010 	push	{r4, lr}
 2001ca0:	e5930014 	ldr	r0, [r3, #20]
 2001ca4:	e5911024 	ldr	r1, [r1, #36]	; 0x24
 2001ca8:	ebfffdc0 	bl	20013b0 <memcpy@plt>
 2001cac:	e3a00000 	mov	r0, #0
 2001cb0:	e8bd8010 	pop	{r4, pc}

02001cb4 <FBCleanScreen>:
 2001cb4:	e30c27b4 	movw	r2, #51124	; 0xc7b4
 2001cb8:	e3402201 	movt	r2, #513	; 0x201
 2001cbc:	e30d3670 	movw	r3, #54896	; 0xd670
 2001cc0:	e3403201 	movt	r3, #513	; 0x201
 2001cc4:	e5921018 	ldr	r1, [r2, #24]
 2001cc8:	e5933000 	ldr	r3, [r3]
 2001ccc:	e3510010 	cmp	r1, #16
 2001cd0:	0a00001b 	beq	2001d44 <FBCleanScreen+0x90>
 2001cd4:	e3510020 	cmp	r1, #32
 2001cd8:	0a00000d 	beq	2001d14 <FBCleanScreen+0x60>
 2001cdc:	e3510008 	cmp	r1, #8
 2001ce0:	e92d4010 	push	{r4, lr}
 2001ce4:	0a000004 	beq	2001cfc <FBCleanScreen+0x48>
 2001ce8:	e30a0b08 	movw	r0, #43784	; 0xab08
 2001cec:	e3400200 	movt	r0, #512	; 0x200
 2001cf0:	eb0004de 	bl	2003070 <DebugPrint>
 2001cf4:	e3e00000 	mvn	r0, #0
 2001cf8:	e8bd8010 	pop	{r4, pc}
 2001cfc:	e1a01000 	mov	r1, r0
 2001d00:	e59220a0 	ldr	r2, [r2, #160]	; 0xa0
 2001d04:	e1a00003 	mov	r0, r3
 2001d08:	ebfffd06 	bl	2001128 <memset@plt>
 2001d0c:	e3a00000 	mov	r0, #0
 2001d10:	e8bd8010 	pop	{r4, pc}
 2001d14:	e59220a0 	ldr	r2, [r2, #160]	; 0xa0
 2001d18:	e3520000 	cmp	r2, #0
 2001d1c:	0a000006 	beq	2001d3c <FBCleanScreen+0x88>
 2001d20:	e2422001 	sub	r2, r2, #1
 2001d24:	e3c22003 	bic	r2, r2, #3
 2001d28:	e2822004 	add	r2, r2, #4
 2001d2c:	e0832002 	add	r2, r3, r2
 2001d30:	e4830004 	str	r0, [r3], #4
 2001d34:	e1520003 	cmp	r2, r3
 2001d38:	1afffffc 	bne	2001d30 <FBCleanScreen+0x7c>
 2001d3c:	e3a00000 	mov	r0, #0
 2001d40:	e12fff1e 	bx	lr
 2001d44:	e1a0c9a0 	lsr	ip, r0, #19
 2001d48:	e7e411d0 	ubfx	r1, r0, #3, #5
 2001d4c:	e59220a0 	ldr	r2, [r2, #160]	; 0xa0
 2001d50:	e1a002a0 	lsr	r0, r0, #5
 2001d54:	e181158c 	orr	r1, r1, ip, lsl #11
 2001d58:	e2000e7e 	and	r0, r0, #2016	; 0x7e0
 2001d5c:	e1810000 	orr	r0, r1, r0
 2001d60:	e3520000 	cmp	r2, #0
 2001d64:	e6ff0070 	uxth	r0, r0
 2001d68:	0afffff3 	beq	2001d3c <FBCleanScreen+0x88>
 2001d6c:	e2422001 	sub	r2, r2, #1
 2001d70:	e3c22001 	bic	r2, r2, #1
 2001d74:	e2822002 	add	r2, r2, #2
 2001d78:	e0832002 	add	r2, r3, r2
 2001d7c:	e0c300b2 	strh	r0, [r3], #2
 2001d80:	e1520003 	cmp	r2, r3
 2001d84:	1afffffc 	bne	2001d7c <FBCleanScreen+0xc8>
 2001d88:	e3a00000 	mov	r0, #0
 2001d8c:	e12fff1e 	bx	lr

02001d90 <FBShowPixel>:
 2001d90:	e30c37b4 	movw	r3, #51124	; 0xc7b4
 2001d94:	e3403201 	movt	r3, #513	; 0x201
 2001d98:	e92d4070 	push	{r4, r5, r6, lr}
 2001d9c:	e593c000 	ldr	ip, [r3]
 2001da0:	e15c0000 	cmp	ip, r0
 2001da4:	9a000025 	bls	2001e40 <FBShowPixel+0xb0>
 2001da8:	e593c004 	ldr	ip, [r3, #4]
 2001dac:	e15c0001 	cmp	ip, r1
 2001db0:	9a000022 	bls	2001e40 <FBShowPixel+0xb0>
 2001db4:	e5934018 	ldr	r4, [r3, #24]
 2001db8:	e30de670 	movw	lr, #54896	; 0xd670
 2001dbc:	e593c0a8 	ldr	ip, [r3, #168]	; 0xa8
 2001dc0:	e340e201 	movt	lr, #513	; 0x201
 2001dc4:	e59350a4 	ldr	r5, [r3, #164]	; 0xa4
 2001dc8:	e3540010 	cmp	r4, #16
 2001dcc:	e59ee000 	ldr	lr, [lr]
 2001dd0:	e003009c 	mul	r3, ip, r0
 2001dd4:	e0233195 	mla	r3, r5, r1, r3
 2001dd8:	0a00000f 	beq	2001e1c <FBShowPixel+0x8c>
 2001ddc:	e3540020 	cmp	r4, #32
 2001de0:	0a000007 	beq	2001e04 <FBShowPixel+0x74>
 2001de4:	e3540008 	cmp	r4, #8
 2001de8:	0a000008 	beq	2001e10 <FBShowPixel+0x80>
 2001dec:	e1a01004 	mov	r1, r4
 2001df0:	e30a0b08 	movw	r0, #43784	; 0xab08
 2001df4:	e3400200 	movt	r0, #512	; 0x200
 2001df8:	eb00049c 	bl	2003070 <DebugPrint>
 2001dfc:	e3e00000 	mvn	r0, #0
 2001e00:	e8bd8070 	pop	{r4, r5, r6, pc}
 2001e04:	e78e2003 	str	r2, [lr, r3]
 2001e08:	e3a00000 	mov	r0, #0
 2001e0c:	e8bd8070 	pop	{r4, r5, r6, pc}
 2001e10:	e7ce2003 	strb	r2, [lr, r3]
 2001e14:	e3a00000 	mov	r0, #0
 2001e18:	e8bd8070 	pop	{r4, r5, r6, pc}
 2001e1c:	e1a0c9a2 	lsr	ip, r2, #19
 2001e20:	e7e411d2 	ubfx	r1, r2, #3, #5
 2001e24:	e1a022a2 	lsr	r2, r2, #5
 2001e28:	e3a00000 	mov	r0, #0
 2001e2c:	e181158c 	orr	r1, r1, ip, lsl #11
 2001e30:	e2022e7e 	and	r2, r2, #2016	; 0x7e0
 2001e34:	e1812002 	orr	r2, r1, r2
 2001e38:	e18e20b3 	strh	r2, [lr, r3]
 2001e3c:	e8bd8070 	pop	{r4, r5, r6, pc}
 2001e40:	e30a0b20 	movw	r0, #43808	; 0xab20
 2001e44:	e3400200 	movt	r0, #512	; 0x200
 2001e48:	eb000488 	bl	2003070 <DebugPrint>
 2001e4c:	e3e00000 	mvn	r0, #0
 2001e50:	e8bd8070 	pop	{r4, r5, r6, pc}

02001e54 <FBDeviceInit>:
 2001e54:	e92d4030 	push	{r4, r5, lr}
 2001e58:	e30a0b30 	movw	r0, #43824	; 0xab30
 2001e5c:	e24dd014 	sub	sp, sp, #20
 2001e60:	e3a01002 	mov	r1, #2
 2001e64:	e3400200 	movt	r0, #512	; 0x200
 2001e68:	e30c47b4 	movw	r4, #51124	; 0xc7b4
 2001e6c:	ebfffcdd 	bl	20011e8 <open@plt>
 2001e70:	e3404201 	movt	r4, #513	; 0x201
 2001e74:	e3500000 	cmp	r0, #0
 2001e78:	e58400ac 	str	r0, [r4, #172]	; 0xac
 2001e7c:	ba000025 	blt	2001f18 <FBDeviceInit+0xc4>
 2001e80:	e3a0c94b 	mov	ip, #1228800	; 0x12c000
 2001e84:	e58d0000 	str	r0, [sp]
 2001e88:	e1a0100c 	mov	r1, ip
 2001e8c:	e3a02000 	mov	r2, #0
 2001e90:	e3a03000 	mov	r3, #0
 2001e94:	e3a00000 	mov	r0, #0
 2001e98:	e1cd20f8 	strd	r2, [sp, #8]
 2001e9c:	e3a03001 	mov	r3, #1
 2001ea0:	e3a02003 	mov	r2, #3
 2001ea4:	e584c0a0 	str	ip, [r4, #160]	; 0xa0
 2001ea8:	e3a0ef96 	mov	lr, #600	; 0x258
 2001eac:	e3a0cb01 	mov	ip, #1024	; 0x400
 2001eb0:	e8845000 	stm	r4, {ip, lr}
 2001eb4:	e3a0c010 	mov	ip, #16
 2001eb8:	e584c018 	str	ip, [r4, #24]
 2001ebc:	ebfffd44 	bl	20013d4 <mmap@plt>
 2001ec0:	e594c000 	ldr	ip, [r4]
 2001ec4:	e30d2670 	movw	r2, #54896	; 0xd670
 2001ec8:	e5941018 	ldr	r1, [r4, #24]
 2001ecc:	e3402201 	movt	r2, #513	; 0x201
 2001ed0:	e5945004 	ldr	r5, [r4, #4]
 2001ed4:	e30c311c 	movw	r3, #49436	; 0xc11c
 2001ed8:	e3403201 	movt	r3, #513	; 0x201
 2001edc:	e583c004 	str	ip, [r3, #4]
 2001ee0:	e5835008 	str	r5, [r3, #8]
 2001ee4:	e583100c 	str	r1, [r3, #12]
 2001ee8:	e1a0e000 	mov	lr, r0
 2001eec:	e582e000 	str	lr, [r2]
 2001ef0:	e0020c91 	mul	r2, r1, ip
 2001ef4:	e3a00000 	mov	r0, #0
 2001ef8:	e1a0c1a1 	lsr	ip, r1, #3
 2001efc:	e583e014 	str	lr, [r3, #20]
 2001f00:	e584c0a8 	str	ip, [r4, #168]	; 0xa8
 2001f04:	e1a021a2 	lsr	r2, r2, #3
 2001f08:	e5832010 	str	r2, [r3, #16]
 2001f0c:	e58420a4 	str	r2, [r4, #164]	; 0xa4
 2001f10:	e28dd014 	add	sp, sp, #20
 2001f14:	e8bd8030 	pop	{r4, r5, pc}
 2001f18:	e30a1b30 	movw	r1, #43824	; 0xab30
 2001f1c:	e30a0b3c 	movw	r0, #43836	; 0xab3c
 2001f20:	e3401200 	movt	r1, #512	; 0x200
 2001f24:	e3400200 	movt	r0, #512	; 0x200
 2001f28:	eb000450 	bl	2003070 <DebugPrint>
 2001f2c:	e59400ac 	ldr	r0, [r4, #172]	; 0xac
 2001f30:	eaffffd2 	b	2001e80 <FBDeviceInit+0x2c>

02001f34 <FBInit>:
 2001f34:	e30c011c 	movw	r0, #49436	; 0xc11c
 2001f38:	e3400201 	movt	r0, #513	; 0x201
 2001f3c:	eafffdc2 	b	200164c <RegisterDispOpr>

02001f40 <AsciiGetCodeFrmBuf>:
 2001f40:	e52de004 	push	{lr}		; (str lr, [sp, #-4]!)
 2001f44:	e1500001 	cmp	r0, r1
 2001f48:	e5d0c000 	ldrb	ip, [r0]
 2001f4c:	e6af307c 	sxtb	r3, ip
 2001f50:	e1e0e003 	mvn	lr, r3
 2001f54:	e1a0efae 	lsr	lr, lr, #31
 2001f58:	23a0e000 	movcs	lr, #0
 2001f5c:	e35e0000 	cmp	lr, #0
 2001f60:	1a00000a 	bne	2001f90 <AsciiGetCodeFrmBuf+0x50>
 2001f64:	e1a03fa3 	lsr	r3, r3, #31
 2001f68:	e280e001 	add	lr, r0, #1
 2001f6c:	e151000e 	cmp	r1, lr
 2001f70:	93a03000 	movls	r3, #0
 2001f74:	82033001 	andhi	r3, r3, #1
 2001f78:	e3530000 	cmp	r3, #0
 2001f7c:	1a000006 	bne	2001f9c <AsciiGetCodeFrmBuf+0x5c>
 2001f80:	e1500001 	cmp	r0, r1
 2001f84:	3a000001 	bcc	2001f90 <AsciiGetCodeFrmBuf+0x50>
 2001f88:	e1a00003 	mov	r0, r3
 2001f8c:	e49df004 	pop	{pc}		; (ldr pc, [sp], #4)
 2001f90:	e582c000 	str	ip, [r2]
 2001f94:	e3a00001 	mov	r0, #1
 2001f98:	e49df004 	pop	{pc}		; (ldr pc, [sp], #4)
 2001f9c:	e5d03001 	ldrb	r3, [r0, #1]
 2001fa0:	e3a00002 	mov	r0, #2
 2001fa4:	e08cc403 	add	ip, ip, r3, lsl #8
 2001fa8:	e582c000 	str	ip, [r2]
 2001fac:	e49df004 	pop	{pc}		; (ldr pc, [sp], #4)

02001fb0 <isAsciiCoding>:
 2001fb0:	e30939e8 	movw	r3, #39400	; 0x99e8
 2001fb4:	e3403200 	movt	r3, #512	; 0x200
 2001fb8:	e92d4010 	push	{r4, lr}
 2001fbc:	e24dd010 	sub	sp, sp, #16
 2001fc0:	e593e004 	ldr	lr, [r3, #4]
 2001fc4:	e3a02003 	mov	r2, #3
 2001fc8:	e593c008 	ldr	ip, [r3, #8]
 2001fcc:	e28d100c 	add	r1, sp, #12
 2001fd0:	e5933000 	ldr	r3, [r3]
 2001fd4:	e1a04000 	mov	r4, r0
 2001fd8:	e1cde0b4 	strh	lr, [sp, #4]
 2001fdc:	e1a0e82e 	lsr	lr, lr, #16
 2001fe0:	e1cdc0b8 	strh	ip, [sp, #8]
 2001fe4:	e1a0c82c 	lsr	ip, ip, #16
 2001fe8:	e5cde006 	strb	lr, [sp, #6]
 2001fec:	e5cdc00a 	strb	ip, [sp, #10]
 2001ff0:	e58d300c 	str	r3, [sp, #12]
 2001ff4:	ebfffc63 	bl	2001188 <strncmp@plt>
 2001ff8:	e3500000 	cmp	r0, #0
 2001ffc:	0a00000b 	beq	2002030 <isAsciiCoding+0x80>
 2002000:	e3a02002 	mov	r2, #2
 2002004:	e28d1004 	add	r1, sp, #4
 2002008:	e1a00004 	mov	r0, r4
 200200c:	ebfffc5d 	bl	2001188 <strncmp@plt>
 2002010:	e3500000 	cmp	r0, #0
 2002014:	0a000005 	beq	2002030 <isAsciiCoding+0x80>
 2002018:	e1a00004 	mov	r0, r4
 200201c:	e3a02002 	mov	r2, #2
 2002020:	e28d1008 	add	r1, sp, #8
 2002024:	ebfffc57 	bl	2001188 <strncmp@plt>
 2002028:	e2900000 	adds	r0, r0, #0
 200202c:	13a00001 	movne	r0, #1
 2002030:	e28dd010 	add	sp, sp, #16
 2002034:	e8bd8010 	pop	{r4, pc}

02002038 <AsciiEncodingInit>:
 2002038:	e92d4010 	push	{r4, lr}
 200203c:	e30a0ac4 	movw	r0, #43716	; 0xaac4
 2002040:	e3400200 	movt	r0, #512	; 0x200
 2002044:	e30c4148 	movw	r4, #49480	; 0xc148
 2002048:	eb0001ad 	bl	2002704 <GetFontOpr>
 200204c:	e3404201 	movt	r4, #513	; 0x201
 2002050:	e1a01000 	mov	r1, r0
 2002054:	e1a00004 	mov	r0, r4
 2002058:	eb000064 	bl	20021f0 <AddFontOprForEncoding>
 200205c:	e30a0b4c 	movw	r0, #43852	; 0xab4c
 2002060:	e3400200 	movt	r0, #512	; 0x200
 2002064:	eb0001a6 	bl	2002704 <GetFontOpr>
 2002068:	e1a01000 	mov	r1, r0
 200206c:	e1a00004 	mov	r0, r4
 2002070:	eb00005e 	bl	20021f0 <AddFontOprForEncoding>
 2002074:	e30a0b54 	movw	r0, #43860	; 0xab54
 2002078:	e3400200 	movt	r0, #512	; 0x200
 200207c:	eb0001a0 	bl	2002704 <GetFontOpr>
 2002080:	e1a01000 	mov	r1, r0
 2002084:	e1a00004 	mov	r0, r4
 2002088:	eb000058 	bl	20021f0 <AddFontOprForEncoding>
 200208c:	e1a00004 	mov	r0, r4
 2002090:	e8bd4010 	pop	{r4, lr}
 2002094:	eaffffff 	b	2002098 <RegisterEncodingOpr>

02002098 <RegisterEncodingOpr>:
 2002098:	e30c3864 	movw	r3, #51300	; 0xc864
 200209c:	e3403201 	movt	r3, #513	; 0x201
 20020a0:	e5932000 	ldr	r2, [r3]
 20020a4:	e3520000 	cmp	r2, #0
 20020a8:	05830000 	streq	r0, [r3]
 20020ac:	05802014 	streq	r2, [r0, #20]
 20020b0:	1a000001 	bne	20020bc <RegisterEncodingOpr+0x24>
 20020b4:	ea000005 	b	20020d0 <RegisterEncodingOpr+0x38>
 20020b8:	e1a02003 	mov	r2, r3
 20020bc:	e5923014 	ldr	r3, [r2, #20]
 20020c0:	e3530000 	cmp	r3, #0
 20020c4:	1afffffb 	bne	20020b8 <RegisterEncodingOpr+0x20>
 20020c8:	e5820014 	str	r0, [r2, #20]
 20020cc:	e5803014 	str	r3, [r0, #20]
 20020d0:	e3a00000 	mov	r0, #0
 20020d4:	e12fff1e 	bx	lr

020020d8 <Encode>:
 20020d8:	e30c3864 	movw	r3, #51300	; 0xc864
 20020dc:	e3403201 	movt	r3, #513	; 0x201
 20020e0:	e92d4070 	push	{r4, r5, r6, lr}
 20020e4:	e5934000 	ldr	r4, [r3]
 20020e8:	e3540000 	cmp	r4, #0
 20020ec:	0a000009 	beq	2002118 <Encode+0x40>
 20020f0:	e1a05000 	mov	r5, r0
 20020f4:	ea000002 	b	2002104 <Encode+0x2c>
 20020f8:	e5944014 	ldr	r4, [r4, #20]
 20020fc:	e3540000 	cmp	r4, #0
 2002100:	0a000004 	beq	2002118 <Encode+0x40>
 2002104:	e1a01005 	mov	r1, r5
 2002108:	e5940000 	ldr	r0, [r4]
 200210c:	ebfffc02 	bl	200111c <strcmp@plt>
 2002110:	e3500000 	cmp	r0, #0
 2002114:	1afffff7 	bne	20020f8 <Encode+0x20>
 2002118:	e1a00004 	mov	r0, r4
 200211c:	e8bd8070 	pop	{r4, r5, r6, pc}

02002120 <ShowEncodingOpr>:
 2002120:	e30c3864 	movw	r3, #51300	; 0xc864
 2002124:	e3403201 	movt	r3, #513	; 0x201
 2002128:	e92d4070 	push	{r4, r5, r6, lr}
 200212c:	e5935000 	ldr	r5, [r3]
 2002130:	e3550000 	cmp	r5, #0
 2002134:	08bd8070 	popeq	{r4, r5, r6, pc}
 2002138:	e30a6afc 	movw	r6, #43772	; 0xaafc
 200213c:	e3406200 	movt	r6, #512	; 0x200
 2002140:	e3a04000 	mov	r4, #0
 2002144:	e5952000 	ldr	r2, [r5]
 2002148:	e1a01004 	mov	r1, r4
 200214c:	e1a00006 	mov	r0, r6
 2002150:	e2844001 	add	r4, r4, #1
 2002154:	ebfffc3b 	bl	2001248 <printf@plt>
 2002158:	e5955014 	ldr	r5, [r5, #20]
 200215c:	e3550000 	cmp	r5, #0
 2002160:	1afffff7 	bne	2002144 <ShowEncodingOpr+0x24>
 2002164:	e8bd8070 	pop	{r4, r5, r6, pc}

02002168 <SelectEncodingOprForFile>:
 2002168:	e30c3864 	movw	r3, #51300	; 0xc864
 200216c:	e3403201 	movt	r3, #513	; 0x201
 2002170:	e92d4070 	push	{r4, r5, r6, lr}
 2002174:	e5934000 	ldr	r4, [r3]
 2002178:	e3540000 	cmp	r4, #0
 200217c:	0a00000b 	beq	20021b0 <SelectEncodingOprForFile+0x48>
 2002180:	e1a05000 	mov	r5, r0
 2002184:	ea000002 	b	2002194 <SelectEncodingOprForFile+0x2c>
 2002188:	e5944014 	ldr	r4, [r4, #20]
 200218c:	e3540000 	cmp	r4, #0
 2002190:	0a000006 	beq	20021b0 <SelectEncodingOprForFile+0x48>
 2002194:	e594300c 	ldr	r3, [r4, #12]
 2002198:	e1a00005 	mov	r0, r5
 200219c:	e12fff33 	blx	r3
 20021a0:	e3500000 	cmp	r0, #0
 20021a4:	0afffff7 	beq	2002188 <SelectEncodingOprForFile+0x20>
 20021a8:	e1a00004 	mov	r0, r4
 20021ac:	e8bd8070 	pop	{r4, r5, r6, pc}
 20021b0:	e3a04000 	mov	r4, #0
 20021b4:	e1a00004 	mov	r0, r4
 20021b8:	e8bd8070 	pop	{r4, r5, r6, pc}

020021bc <GetCodeFrmBuf>:
 20021bc:	e92d4070 	push	{r4, r5, r6, lr}
 20021c0:	e1a04000 	mov	r4, r0
 20021c4:	e30a0b58 	movw	r0, #43864	; 0xab58
 20021c8:	e3400200 	movt	r0, #512	; 0x200
 20021cc:	e1a05001 	mov	r5, r1
 20021d0:	e1a06002 	mov	r6, r2
 20021d4:	ebffffbf 	bl	20020d8 <Encode>
 20021d8:	e1a02006 	mov	r2, r6
 20021dc:	e1a01005 	mov	r1, r5
 20021e0:	e5903010 	ldr	r3, [r0, #16]
 20021e4:	e1a00004 	mov	r0, r4
 20021e8:	e8bd4070 	pop	{r4, r5, r6, lr}
 20021ec:	e12fff13 	bx	r3

020021f0 <AddFontOprForEncoding>:
 20021f0:	e16f3f11 	clz	r3, r1
 20021f4:	e3500000 	cmp	r0, #0
 20021f8:	e92d4070 	push	{r4, r5, r6, lr}
 20021fc:	e1a032a3 	lsr	r3, r3, #5
 2002200:	03a04001 	moveq	r4, #1
 2002204:	11a04003 	movne	r4, r3
 2002208:	e3540000 	cmp	r4, #0
 200220c:	1a000010 	bne	2002254 <AddFontOprForEncoding+0x64>
 2002210:	e1a06000 	mov	r6, r0
 2002214:	e3a00014 	mov	r0, #20
 2002218:	e1a05001 	mov	r5, r1
 200221c:	ebfffbd3 	bl	2001170 <malloc@plt>
 2002220:	e250e000 	subs	lr, r0, #0
 2002224:	0a00000a 	beq	2002254 <AddFontOprForEncoding+0x64>
 2002228:	e5950000 	ldr	r0, [r5]
 200222c:	e1a0c00e 	mov	ip, lr
 2002230:	e5951004 	ldr	r1, [r5, #4]
 2002234:	e5952008 	ldr	r2, [r5, #8]
 2002238:	e595300c 	ldr	r3, [r5, #12]
 200223c:	e5965008 	ldr	r5, [r6, #8]
 2002240:	e586e008 	str	lr, [r6, #8]
 2002244:	e8ac000f 	stmia	ip!, {r0, r1, r2, r3}
 2002248:	e58e5010 	str	r5, [lr, #16]
 200224c:	e1a00004 	mov	r0, r4
 2002250:	e8bd8070 	pop	{r4, r5, r6, pc}
 2002254:	e3e04000 	mvn	r4, #0
 2002258:	eafffffb 	b	200224c <AddFontOprForEncoding+0x5c>

0200225c <DelFontOprFrmEncoding>:
 200225c:	e3510000 	cmp	r1, #0
 2002260:	13500000 	cmpne	r0, #0
 2002264:	e92d41f0 	push	{r4, r5, r6, r7, r8, lr}
 2002268:	0a00001a 	beq	20022d8 <DelFontOprFrmEncoding+0x7c>
 200226c:	e5905008 	ldr	r5, [r0, #8]
 2002270:	e1a08000 	mov	r8, r0
 2002274:	e5917000 	ldr	r7, [r1]
 2002278:	e5950000 	ldr	r0, [r5]
 200227c:	e1a01007 	mov	r1, r7
 2002280:	ebfffba5 	bl	200111c <strcmp@plt>
 2002284:	e5954010 	ldr	r4, [r5, #16]
 2002288:	e2506000 	subs	r6, r0, #0
 200228c:	0a000014 	beq	20022e4 <DelFontOprFrmEncoding+0x88>
 2002290:	e3540000 	cmp	r4, #0
 2002294:	1a000004 	bne	20022ac <DelFontOprFrmEncoding+0x50>
 2002298:	ea00000e 	b	20022d8 <DelFontOprFrmEncoding+0x7c>
 200229c:	e3530000 	cmp	r3, #0
 20022a0:	e1a05004 	mov	r5, r4
 20022a4:	e1a04003 	mov	r4, r3
 20022a8:	0a00000a 	beq	20022d8 <DelFontOprFrmEncoding+0x7c>
 20022ac:	e1a01007 	mov	r1, r7
 20022b0:	e5940000 	ldr	r0, [r4]
 20022b4:	ebfffb98 	bl	200111c <strcmp@plt>
 20022b8:	e5943010 	ldr	r3, [r4, #16]
 20022bc:	e2506000 	subs	r6, r0, #0
 20022c0:	1afffff5 	bne	200229c <DelFontOprFrmEncoding+0x40>
 20022c4:	e1a00004 	mov	r0, r4
 20022c8:	e5853010 	str	r3, [r5, #16]
 20022cc:	ebfffc1c 	bl	2001344 <free@plt>
 20022d0:	e1a00006 	mov	r0, r6
 20022d4:	e8bd81f0 	pop	{r4, r5, r6, r7, r8, pc}
 20022d8:	e3e06000 	mvn	r6, #0
 20022dc:	e1a00006 	mov	r0, r6
 20022e0:	e8bd81f0 	pop	{r4, r5, r6, r7, r8, pc}
 20022e4:	e1a00005 	mov	r0, r5
 20022e8:	e5884008 	str	r4, [r8, #8]
 20022ec:	ebfffc14 	bl	2001344 <free@plt>
 20022f0:	e1a00006 	mov	r0, r6
 20022f4:	e8bd81f0 	pop	{r4, r5, r6, r7, r8, pc}

020022f8 <EncodingInit>:
 20022f8:	e92d4010 	push	{r4, lr}
 20022fc:	ebffff4d 	bl	2002038 <AsciiEncodingInit>
 2002300:	e3500000 	cmp	r0, #0
 2002304:	1a00000d 	bne	2002340 <EncodingInit+0x48>
 2002308:	eb00005f 	bl	200248c <Utf16leEncodingInit>
 200230c:	e3500000 	cmp	r0, #0
 2002310:	1a00000f 	bne	2002354 <EncodingInit+0x5c>
 2002314:	eb000031 	bl	20023e0 <Utf16beEncodingInit>
 2002318:	e3500000 	cmp	r0, #0
 200231c:	1a000011 	bne	2002368 <EncodingInit+0x70>
 2002320:	eb0000a5 	bl	20025bc <Utf8EncodingInit>
 2002324:	e3500000 	cmp	r0, #0
 2002328:	08bd8010 	popeq	{r4, pc}
 200232c:	e30a0bb4 	movw	r0, #43956	; 0xabb4
 2002330:	e3400200 	movt	r0, #512	; 0x200
 2002334:	eb00034d 	bl	2003070 <DebugPrint>
 2002338:	e3e00000 	mvn	r0, #0
 200233c:	e8bd8010 	pop	{r4, pc}
 2002340:	e30a0b60 	movw	r0, #43872	; 0xab60
 2002344:	e3400200 	movt	r0, #512	; 0x200
 2002348:	eb000348 	bl	2003070 <DebugPrint>
 200234c:	e3e00000 	mvn	r0, #0
 2002350:	e8bd8010 	pop	{r4, pc}
 2002354:	e30a0b7c 	movw	r0, #43900	; 0xab7c
 2002358:	e3400200 	movt	r0, #512	; 0x200
 200235c:	eb000343 	bl	2003070 <DebugPrint>
 2002360:	e3e00000 	mvn	r0, #0
 2002364:	e8bd8010 	pop	{r4, pc}
 2002368:	e30a0b98 	movw	r0, #43928	; 0xab98
 200236c:	e3400200 	movt	r0, #512	; 0x200
 2002370:	eb00033e 	bl	2003070 <DebugPrint>
 2002374:	e3e00000 	mvn	r0, #0
 2002378:	e8bd8010 	pop	{r4, pc}

0200237c <isUtf16beCoding>:
 200237c:	e30939f4 	movw	r3, #39412	; 0x99f4
 2002380:	e3403200 	movt	r3, #512	; 0x200
 2002384:	e52de004 	push	{lr}		; (str lr, [sp, #-4]!)
 2002388:	e24dd00c 	sub	sp, sp, #12
 200238c:	e5933000 	ldr	r3, [r3]
 2002390:	e3a02002 	mov	r2, #2
 2002394:	e28d1004 	add	r1, sp, #4
 2002398:	e1cd30b4 	strh	r3, [sp, #4]
 200239c:	e1a03823 	lsr	r3, r3, #16
 20023a0:	e5cd3006 	strb	r3, [sp, #6]
 20023a4:	ebfffb77 	bl	2001188 <strncmp@plt>
 20023a8:	e16f0f10 	clz	r0, r0
 20023ac:	e1a002a0 	lsr	r0, r0, #5
 20023b0:	e28dd00c 	add	sp, sp, #12
 20023b4:	e49df004 	pop	{pc}		; (ldr pc, [sp], #4)

020023b8 <Utf16beGetCodeFrmBuf>:
 20023b8:	e1a03000 	mov	r3, r0
 20023bc:	e2800001 	add	r0, r0, #1
 20023c0:	e1500001 	cmp	r0, r1
 20023c4:	35d31000 	ldrbcc	r1, [r3]
 20023c8:	33a00002 	movcc	r0, #2
 20023cc:	35d33001 	ldrbcc	r3, [r3, #1]
 20023d0:	23a00000 	movcs	r0, #0
 20023d4:	30833401 	addcc	r3, r3, r1, lsl #8
 20023d8:	35823000 	strcc	r3, [r2]
 20023dc:	e12fff1e 	bx	lr

020023e0 <Utf16beEncodingInit>:
 20023e0:	e92d4010 	push	{r4, lr}
 20023e4:	e30a0ac4 	movw	r0, #43716	; 0xaac4
 20023e8:	e3400200 	movt	r0, #512	; 0x200
 20023ec:	e30c4160 	movw	r4, #49504	; 0xc160
 20023f0:	eb0000c3 	bl	2002704 <GetFontOpr>
 20023f4:	e3404201 	movt	r4, #513	; 0x201
 20023f8:	e1a01000 	mov	r1, r0
 20023fc:	e1a00004 	mov	r0, r4
 2002400:	ebffff7a 	bl	20021f0 <AddFontOprForEncoding>
 2002404:	e30a0b4c 	movw	r0, #43852	; 0xab4c
 2002408:	e3400200 	movt	r0, #512	; 0x200
 200240c:	eb0000bc 	bl	2002704 <GetFontOpr>
 2002410:	e1a01000 	mov	r1, r0
 2002414:	e1a00004 	mov	r0, r4
 2002418:	ebffff74 	bl	20021f0 <AddFontOprForEncoding>
 200241c:	e1a00004 	mov	r0, r4
 2002420:	e8bd4010 	pop	{r4, lr}
 2002424:	eaffff1b 	b	2002098 <RegisterEncodingOpr>

02002428 <isUtf16leCoding>:
 2002428:	e30939f8 	movw	r3, #39416	; 0x99f8
 200242c:	e3403200 	movt	r3, #512	; 0x200
 2002430:	e52de004 	push	{lr}		; (str lr, [sp, #-4]!)
 2002434:	e24dd00c 	sub	sp, sp, #12
 2002438:	e5933000 	ldr	r3, [r3]
 200243c:	e3a02002 	mov	r2, #2
 2002440:	e28d1004 	add	r1, sp, #4
 2002444:	e1cd30b4 	strh	r3, [sp, #4]
 2002448:	e1a03823 	lsr	r3, r3, #16
 200244c:	e5cd3006 	strb	r3, [sp, #6]
 2002450:	ebfffb4c 	bl	2001188 <strncmp@plt>
 2002454:	e16f0f10 	clz	r0, r0
 2002458:	e1a002a0 	lsr	r0, r0, #5
 200245c:	e28dd00c 	add	sp, sp, #12
 2002460:	e49df004 	pop	{pc}		; (ldr pc, [sp], #4)

02002464 <Utf16leGetCodeFrmBuf>:
 2002464:	e1a03000 	mov	r3, r0
 2002468:	e2800001 	add	r0, r0, #1
 200246c:	e1500001 	cmp	r0, r1
 2002470:	35d31001 	ldrbcc	r1, [r3, #1]
 2002474:	33a00002 	movcc	r0, #2
 2002478:	35d33000 	ldrbcc	r3, [r3]
 200247c:	23a00000 	movcs	r0, #0
 2002480:	30833401 	addcc	r3, r3, r1, lsl #8
 2002484:	35823000 	strcc	r3, [r2]
 2002488:	e12fff1e 	bx	lr

0200248c <Utf16leEncodingInit>:
 200248c:	e92d4010 	push	{r4, lr}
 2002490:	e30a0ac4 	movw	r0, #43716	; 0xaac4
 2002494:	e3400200 	movt	r0, #512	; 0x200
 2002498:	e30c4178 	movw	r4, #49528	; 0xc178
 200249c:	eb000098 	bl	2002704 <GetFontOpr>
 20024a0:	e3404201 	movt	r4, #513	; 0x201
 20024a4:	e1a01000 	mov	r1, r0
 20024a8:	e1a00004 	mov	r0, r4
 20024ac:	ebffff4f 	bl	20021f0 <AddFontOprForEncoding>
 20024b0:	e30a0b4c 	movw	r0, #43852	; 0xab4c
 20024b4:	e3400200 	movt	r0, #512	; 0x200
 20024b8:	eb000091 	bl	2002704 <GetFontOpr>
 20024bc:	e1a01000 	mov	r1, r0
 20024c0:	e1a00004 	mov	r0, r4
 20024c4:	ebffff49 	bl	20021f0 <AddFontOprForEncoding>
 20024c8:	e1a00004 	mov	r0, r4
 20024cc:	e8bd4010 	pop	{r4, lr}
 20024d0:	eafffef0 	b	2002098 <RegisterEncodingOpr>

020024d4 <isUtf8Coding>:
 20024d4:	e30939fc 	movw	r3, #39420	; 0x99fc
 20024d8:	e3403200 	movt	r3, #512	; 0x200
 20024dc:	e52de004 	push	{lr}		; (str lr, [sp, #-4]!)
 20024e0:	e24dd00c 	sub	sp, sp, #12
 20024e4:	e5933000 	ldr	r3, [r3]
 20024e8:	e28d1008 	add	r1, sp, #8
 20024ec:	e3a02003 	mov	r2, #3
 20024f0:	e5213004 	str	r3, [r1, #-4]!
 20024f4:	ebfffb23 	bl	2001188 <strncmp@plt>
 20024f8:	e16f0f10 	clz	r0, r0
 20024fc:	e1a002a0 	lsr	r0, r0, #5
 2002500:	e28dd00c 	add	sp, sp, #12
 2002504:	e49df004 	pop	{pc}		; (ldr pc, [sp], #4)

02002508 <Utf8GetCodeFrmBuf>:
 2002508:	e1500001 	cmp	r0, r1
 200250c:	2a000010 	bcs	2002554 <Utf8GetCodeFrmBuf+0x4c>
 2002510:	e92d4010 	push	{r4, lr}
 2002514:	e3a0c000 	mov	ip, #0
 2002518:	e5d0e000 	ldrb	lr, [r0]
 200251c:	e26c3007 	rsb	r3, ip, #7
 2002520:	e1a0335e 	asr	r3, lr, r3
 2002524:	e2133001 	ands	r3, r3, #1
 2002528:	0a00000c 	beq	2002560 <Utf8GetCodeFrmBuf+0x58>
 200252c:	e28cc001 	add	ip, ip, #1
 2002530:	e35c0008 	cmp	ip, #8
 2002534:	1afffff8 	bne	200251c <Utf8GetCodeFrmBuf+0x14>
 2002538:	e2804008 	add	r4, r0, #8
 200253c:	e1510004 	cmp	r1, r4
 2002540:	23a03000 	movcs	r3, #0
 2002544:	2a000013 	bcs	2002598 <Utf8GetCodeFrmBuf+0x90>
 2002548:	e3a0c000 	mov	ip, #0
 200254c:	e1a0000c 	mov	r0, ip
 2002550:	e8bd8010 	pop	{r4, pc}
 2002554:	e3a0c000 	mov	ip, #0
 2002558:	e1a0000c 	mov	r0, ip
 200255c:	e12fff1e 	bx	lr
 2002560:	e080400c 	add	r4, r0, ip
 2002564:	e1510004 	cmp	r1, r4
 2002568:	3afffff6 	bcc	2002548 <Utf8GetCodeFrmBuf+0x40>
 200256c:	e35c0000 	cmp	ip, #0
 2002570:	1a000003 	bne	2002584 <Utf8GetCodeFrmBuf+0x7c>
 2002574:	e3a0c001 	mov	ip, #1
 2002578:	e582e000 	str	lr, [r2]
 200257c:	e1a0000c 	mov	r0, ip
 2002580:	e8bd8010 	pop	{r4, pc}
 2002584:	e1a03c1e 	lsl	r3, lr, ip
 2002588:	e35c0001 	cmp	ip, #1
 200258c:	e6ef3073 	uxtb	r3, r3
 2002590:	e1a03c53 	asr	r3, r3, ip
 2002594:	0a000005 	beq	20025b0 <Utf8GetCodeFrmBuf+0xa8>
 2002598:	e2800001 	add	r0, r0, #1
 200259c:	e4d01001 	ldrb	r1, [r0], #1
 20025a0:	e1540000 	cmp	r4, r0
 20025a4:	e201103f 	and	r1, r1, #63	; 0x3f
 20025a8:	e0813303 	add	r3, r1, r3, lsl #6
 20025ac:	1afffffa 	bne	200259c <Utf8GetCodeFrmBuf+0x94>
 20025b0:	e5823000 	str	r3, [r2]
 20025b4:	e1a0000c 	mov	r0, ip
 20025b8:	e8bd8010 	pop	{r4, pc}

020025bc <Utf8EncodingInit>:
 20025bc:	e92d4010 	push	{r4, lr}
 20025c0:	e30a0ac4 	movw	r0, #43716	; 0xaac4
 20025c4:	e3400200 	movt	r0, #512	; 0x200
 20025c8:	e30c4190 	movw	r4, #49552	; 0xc190
 20025cc:	eb00004c 	bl	2002704 <GetFontOpr>
 20025d0:	e3404201 	movt	r4, #513	; 0x201
 20025d4:	e1a01000 	mov	r1, r0
 20025d8:	e1a00004 	mov	r0, r4
 20025dc:	ebffff03 	bl	20021f0 <AddFontOprForEncoding>
 20025e0:	e30a0b4c 	movw	r0, #43852	; 0xab4c
 20025e4:	e3400200 	movt	r0, #512	; 0x200
 20025e8:	eb000045 	bl	2002704 <GetFontOpr>
 20025ec:	e1a01000 	mov	r1, r0
 20025f0:	e1a00004 	mov	r0, r4
 20025f4:	ebfffefd 	bl	20021f0 <AddFontOprForEncoding>
 20025f8:	e1a00004 	mov	r0, r4
 20025fc:	e8bd4010 	pop	{r4, lr}
 2002600:	eafffea4 	b	2002098 <RegisterEncodingOpr>

02002604 <ASCIIFontInit>:
 2002604:	e2510010 	subs	r0, r1, #16
 2002608:	13e00000 	mvnne	r0, #0
 200260c:	e12fff1e 	bx	lr

02002610 <ASCIIGetFontBitmap>:
 2002610:	e3500080 	cmp	r0, #128	; 0x80
 2002614:	e5913018 	ldr	r3, [r1, #24]
 2002618:	e591c01c 	ldr	ip, [r1, #28]
 200261c:	8a000011 	bhi	2002668 <ASCIIGetFontBitmap+0x58>
 2002620:	e3092a00 	movw	r2, #39424	; 0x9a00
 2002624:	e3402200 	movt	r2, #512	; 0x200
 2002628:	e0822200 	add	r2, r2, r0, lsl #4
 200262c:	e5813000 	str	r3, [r1]
 2002630:	e52de004 	push	{lr}		; (str lr, [sp, #-4]!)
 2002634:	e2833008 	add	r3, r3, #8
 2002638:	e24ce010 	sub	lr, ip, #16
 200263c:	e5813008 	str	r3, [r1, #8]
 2002640:	e5813020 	str	r3, [r1, #32]
 2002644:	e3a00000 	mov	r0, #0
 2002648:	e3a03001 	mov	r3, #1
 200264c:	e581c00c 	str	ip, [r1, #12]
 2002650:	e581c024 	str	ip, [r1, #36]	; 0x24
 2002654:	e581e004 	str	lr, [r1, #4]
 2002658:	e5812028 	str	r2, [r1, #40]	; 0x28
 200265c:	e5813010 	str	r3, [r1, #16]
 2002660:	e5813014 	str	r3, [r1, #20]
 2002664:	e49df004 	pop	{pc}		; (ldr pc, [sp], #4)
 2002668:	e3e00000 	mvn	r0, #0
 200266c:	e12fff1e 	bx	lr

02002670 <ASCIIInit>:
 2002670:	e30c01a8 	movw	r0, #49576	; 0xc1a8
 2002674:	e3400201 	movt	r0, #513	; 0x201
 2002678:	eaffffff 	b	200267c <RegisterFontOpr>

0200267c <RegisterFontOpr>:
 200267c:	e30c3868 	movw	r3, #51304	; 0xc868
 2002680:	e3403201 	movt	r3, #513	; 0x201
 2002684:	e5932000 	ldr	r2, [r3]
 2002688:	e3520000 	cmp	r2, #0
 200268c:	05830000 	streq	r0, [r3]
 2002690:	05802010 	streq	r2, [r0, #16]
 2002694:	1a000001 	bne	20026a0 <RegisterFontOpr+0x24>
 2002698:	ea000005 	b	20026b4 <RegisterFontOpr+0x38>
 200269c:	e1a02003 	mov	r2, r3
 20026a0:	e5923010 	ldr	r3, [r2, #16]
 20026a4:	e3530000 	cmp	r3, #0
 20026a8:	1afffffb 	bne	200269c <RegisterFontOpr+0x20>
 20026ac:	e5820010 	str	r0, [r2, #16]
 20026b0:	e5803010 	str	r3, [r0, #16]
 20026b4:	e3a00000 	mov	r0, #0
 20026b8:	e12fff1e 	bx	lr

020026bc <ShowFontOpr>:
 20026bc:	e30c3868 	movw	r3, #51304	; 0xc868
 20026c0:	e3403201 	movt	r3, #513	; 0x201
 20026c4:	e92d4070 	push	{r4, r5, r6, lr}
 20026c8:	e5935000 	ldr	r5, [r3]
 20026cc:	e3550000 	cmp	r5, #0
 20026d0:	08bd8070 	popeq	{r4, r5, r6, pc}
 20026d4:	e30a6afc 	movw	r6, #43772	; 0xaafc
 20026d8:	e3406200 	movt	r6, #512	; 0x200
 20026dc:	e3a04000 	mov	r4, #0
 20026e0:	e5952000 	ldr	r2, [r5]
 20026e4:	e1a01004 	mov	r1, r4
 20026e8:	e1a00006 	mov	r0, r6
 20026ec:	e2844001 	add	r4, r4, #1
 20026f0:	ebfffad4 	bl	2001248 <printf@plt>
 20026f4:	e5955010 	ldr	r5, [r5, #16]
 20026f8:	e3550000 	cmp	r5, #0
 20026fc:	1afffff7 	bne	20026e0 <ShowFontOpr+0x24>
 2002700:	e8bd8070 	pop	{r4, r5, r6, pc}

02002704 <GetFontOpr>:
 2002704:	e30c3868 	movw	r3, #51304	; 0xc868
 2002708:	e3403201 	movt	r3, #513	; 0x201
 200270c:	e92d4070 	push	{r4, r5, r6, lr}
 2002710:	e5934000 	ldr	r4, [r3]
 2002714:	e3540000 	cmp	r4, #0
 2002718:	0a000009 	beq	2002744 <GetFontOpr+0x40>
 200271c:	e1a05000 	mov	r5, r0
 2002720:	ea000002 	b	2002730 <GetFontOpr+0x2c>
 2002724:	e5944010 	ldr	r4, [r4, #16]
 2002728:	e3540000 	cmp	r4, #0
 200272c:	0a000004 	beq	2002744 <GetFontOpr+0x40>
 2002730:	e1a01005 	mov	r1, r5
 2002734:	e5940000 	ldr	r0, [r4]
 2002738:	ebfffa77 	bl	200111c <strcmp@plt>
 200273c:	e3500000 	cmp	r0, #0
 2002740:	1afffff7 	bne	2002724 <GetFontOpr+0x20>
 2002744:	e1a00004 	mov	r0, r4
 2002748:	e8bd8070 	pop	{r4, r5, r6, pc}

0200274c <SetFontSize>:
 200274c:	e30c3868 	movw	r3, #51304	; 0xc868
 2002750:	e3403201 	movt	r3, #513	; 0x201
 2002754:	e92d4070 	push	{r4, r5, r6, lr}
 2002758:	e5934000 	ldr	r4, [r3]
 200275c:	e5830004 	str	r0, [r3, #4]
 2002760:	e3540000 	cmp	r4, #0
 2002764:	08bd8070 	popeq	{r4, r5, r6, pc}
 2002768:	e1a05000 	mov	r5, r0
 200276c:	e594300c 	ldr	r3, [r4, #12]
 2002770:	e1a00005 	mov	r0, r5
 2002774:	e3530000 	cmp	r3, #0
 2002778:	0a000000 	beq	2002780 <SetFontSize+0x34>
 200277c:	e12fff33 	blx	r3
 2002780:	e5944010 	ldr	r4, [r4, #16]
 2002784:	e3540000 	cmp	r4, #0
 2002788:	1afffff7 	bne	200276c <SetFontSize+0x20>
 200278c:	e8bd8070 	pop	{r4, r5, r6, pc}

02002790 <GetFontSize>:
 2002790:	e30c3868 	movw	r3, #51304	; 0xc868
 2002794:	e3403201 	movt	r3, #513	; 0x201
 2002798:	e5930004 	ldr	r0, [r3, #4]
 200279c:	e12fff1e 	bx	lr

020027a0 <GetFontBitmap>:
 20027a0:	e30c3868 	movw	r3, #51304	; 0xc868
 20027a4:	e3403201 	movt	r3, #513	; 0x201
 20027a8:	e92d4070 	push	{r4, r5, r6, lr}
 20027ac:	e5934000 	ldr	r4, [r3]
 20027b0:	e3540000 	cmp	r4, #0
 20027b4:	0a00000a 	beq	20027e4 <GetFontBitmap+0x44>
 20027b8:	e1a06000 	mov	r6, r0
 20027bc:	e1a05001 	mov	r5, r1
 20027c0:	e5943008 	ldr	r3, [r4, #8]
 20027c4:	e1a01005 	mov	r1, r5
 20027c8:	e1a00006 	mov	r0, r6
 20027cc:	e12fff33 	blx	r3
 20027d0:	e3500000 	cmp	r0, #0
 20027d4:	08bd8070 	popeq	{r4, r5, r6, pc}
 20027d8:	e5944010 	ldr	r4, [r4, #16]
 20027dc:	e3540000 	cmp	r4, #0
 20027e0:	1afffff6 	bne	20027c0 <GetFontBitmap+0x20>
 20027e4:	e3e00000 	mvn	r0, #0
 20027e8:	e8bd8070 	pop	{r4, r5, r6, pc}

020027ec <SetFontsDetail>:
 20027ec:	e92d4070 	push	{r4, r5, r6, lr}
 20027f0:	e1a05001 	mov	r5, r1
 20027f4:	e1a04002 	mov	r4, r2
 20027f8:	ebffffc1 	bl	2002704 <GetFontOpr>
 20027fc:	e3500000 	cmp	r0, #0
 2002800:	0a000007 	beq	2002824 <SetFontsDetail+0x38>
 2002804:	e30c3868 	movw	r3, #51304	; 0xc868
 2002808:	e3403201 	movt	r3, #513	; 0x201
 200280c:	e5902004 	ldr	r2, [r0, #4]
 2002810:	e1a01004 	mov	r1, r4
 2002814:	e1a00005 	mov	r0, r5
 2002818:	e5834004 	str	r4, [r3, #4]
 200281c:	e8bd4070 	pop	{r4, r5, r6, lr}
 2002820:	e12fff12 	bx	r2
 2002824:	e3e00000 	mvn	r0, #0
 2002828:	e8bd8070 	pop	{r4, r5, r6, pc}

0200282c <FontsInit>:
 200282c:	e92d4010 	push	{r4, lr}
 2002830:	eb00005a 	bl	20029a0 <FreeTypeInit>
 2002834:	e3500000 	cmp	r0, #0
 2002838:	08bd8010 	popeq	{r4, pc}
 200283c:	e30a0be8 	movw	r0, #44008	; 0xabe8
 2002840:	e3400200 	movt	r0, #512	; 0x200
 2002844:	eb000209 	bl	2003070 <DebugPrint>
 2002848:	e3e00000 	mvn	r0, #0
 200284c:	e8bd8010 	pop	{r4, pc}

02002850 <FreeTypeSetFontSize>:
 2002850:	e30c3870 	movw	r3, #51312	; 0xc870
 2002854:	e3403201 	movt	r3, #513	; 0x201
 2002858:	e1a01000 	mov	r1, r0
 200285c:	e3a02000 	mov	r2, #0
 2002860:	e5930000 	ldr	r0, [r3]
 2002864:	eafffa6e 	b	2001224 <FT_Set_Pixel_Sizes@plt>

02002868 <FreeTypeGetFontBitmap>:
 2002868:	e92d41f0 	push	{r4, r5, r6, r7, r8, lr}
 200286c:	e30c5870 	movw	r5, #51312	; 0xc870
 2002870:	e3405201 	movt	r5, #513	; 0x201
 2002874:	e1a08000 	mov	r8, r0
 2002878:	e1a04001 	mov	r4, r1
 200287c:	e3012004 	movw	r2, #4100	; 0x1004
 2002880:	e5950000 	ldr	r0, [r5]
 2002884:	e1a01008 	mov	r1, r8
 2002888:	e1c461d8 	ldrd	r6, [r4, #24]
 200288c:	ebfffa34 	bl	2001164 <FT_Load_Char@plt>
 2002890:	e3500000 	cmp	r0, #0
 2002894:	1a00001a 	bne	2002904 <FreeTypeGetFontBitmap+0x9c>
 2002898:	e5953004 	ldr	r3, [r5, #4]
 200289c:	e3a05001 	mov	r5, #1
 20028a0:	e5932040 	ldr	r2, [r3, #64]	; 0x40
 20028a4:	e593c064 	ldr	ip, [r3, #100]	; 0x64
 20028a8:	e282e03f 	add	lr, r2, #63	; 0x3f
 20028ac:	e3520000 	cmp	r2, #0
 20028b0:	e5931068 	ldr	r1, [r3, #104]	; 0x68
 20028b4:	e086c00c 	add	ip, r6, ip
 20028b8:	b1a0200e 	movlt	r2, lr
 20028bc:	e5938054 	ldr	r8, [r3, #84]	; 0x54
 20028c0:	e0862342 	add	r2, r6, r2, asr #6
 20028c4:	e5936058 	ldr	r6, [r3, #88]	; 0x58
 20028c8:	e593e050 	ldr	lr, [r3, #80]	; 0x50
 20028cc:	e0471001 	sub	r1, r7, r1
 20028d0:	e593304c 	ldr	r3, [r3, #76]	; 0x4c
 20028d4:	e08ee00c 	add	lr, lr, ip
 20028d8:	e5841004 	str	r1, [r4, #4]
 20028dc:	e584c000 	str	ip, [r4]
 20028e0:	e0831001 	add	r1, r3, r1
 20028e4:	e584e008 	str	lr, [r4, #8]
 20028e8:	e584100c 	str	r1, [r4, #12]
 20028ec:	e5842020 	str	r2, [r4, #32]
 20028f0:	e5848014 	str	r8, [r4, #20]
 20028f4:	e5846028 	str	r6, [r4, #40]	; 0x28
 20028f8:	e5847024 	str	r7, [r4, #36]	; 0x24
 20028fc:	e5845010 	str	r5, [r4, #16]
 2002900:	e8bd81f0 	pop	{r4, r5, r6, r7, r8, pc}
 2002904:	e1a01008 	mov	r1, r8
 2002908:	e30a0c00 	movw	r0, #44032	; 0xac00
 200290c:	e3400200 	movt	r0, #512	; 0x200
 2002910:	eb0001d6 	bl	2003070 <DebugPrint>
 2002914:	e3e00000 	mvn	r0, #0
 2002918:	e8bd81f0 	pop	{r4, r5, r6, r7, r8, pc}

0200291c <FreeTypeFontInit>:
 200291c:	e92d4070 	push	{r4, r5, r6, lr}
 2002920:	e30c4870 	movw	r4, #51312	; 0xc870
 2002924:	e3404201 	movt	r4, #513	; 0x201
 2002928:	e1a05000 	mov	r5, r0
 200292c:	e2840008 	add	r0, r4, #8
 2002930:	e1a06001 	mov	r6, r1
 2002934:	ebfffa94 	bl	200138c <FT_Init_FreeType@plt>
 2002938:	e2502000 	subs	r2, r0, #0
 200293c:	1a000012 	bne	200298c <FreeTypeFontInit+0x70>
 2002940:	e1a01005 	mov	r1, r5
 2002944:	e1a03004 	mov	r3, r4
 2002948:	e5940008 	ldr	r0, [r4, #8]
 200294c:	ebfffa91 	bl	2001398 <FT_New_Face@plt>
 2002950:	e2502000 	subs	r2, r0, #0
 2002954:	1a00000c 	bne	200298c <FreeTypeFontInit+0x70>
 2002958:	e5940000 	ldr	r0, [r4]
 200295c:	e1a01006 	mov	r1, r6
 2002960:	e5903054 	ldr	r3, [r0, #84]	; 0x54
 2002964:	e5843004 	str	r3, [r4, #4]
 2002968:	ebfffa2d 	bl	2001224 <FT_Set_Pixel_Sizes@plt>
 200296c:	e3500000 	cmp	r0, #0
 2002970:	08bd8070 	popeq	{r4, r5, r6, pc}
 2002974:	e1a01006 	mov	r1, r6
 2002978:	e30a0c40 	movw	r0, #44096	; 0xac40
 200297c:	e3400200 	movt	r0, #512	; 0x200
 2002980:	eb0001ba 	bl	2003070 <DebugPrint>
 2002984:	e3e00000 	mvn	r0, #0
 2002988:	e8bd8070 	pop	{r4, r5, r6, pc}
 200298c:	e30a0c24 	movw	r0, #44068	; 0xac24
 2002990:	e3400200 	movt	r0, #512	; 0x200
 2002994:	eb0001b5 	bl	2003070 <DebugPrint>
 2002998:	e3e00000 	mvn	r0, #0
 200299c:	e8bd8070 	pop	{r4, r5, r6, pc}

020029a0 <FreeTypeInit>:
 20029a0:	e30c01bc 	movw	r0, #49596	; 0xc1bc
 20029a4:	e3400201 	movt	r0, #513	; 0x201
 20029a8:	eaffff33 	b	200267c <RegisterFontOpr>

020029ac <GBKGetFontBitmap>:
 20029ac:	e92d41f0 	push	{r4, r5, r6, r7, r8, lr}
 20029b0:	e3a03054 	mov	r3, #84	; 0x54
 20029b4:	e1a05001 	mov	r5, r1
 20029b8:	e1a04000 	mov	r4, r0
 20029bc:	e30a2a00 	movw	r2, #43520	; 0xaa00
 20029c0:	e30a1c60 	movw	r1, #44128	; 0xac60
 20029c4:	e3402200 	movt	r2, #512	; 0x200
 20029c8:	e3401200 	movt	r1, #512	; 0x200
 20029cc:	e30a0c68 	movw	r0, #44136	; 0xac68
 20029d0:	e3400200 	movt	r0, #512	; 0x200
 20029d4:	e5957018 	ldr	r7, [r5, #24]
 20029d8:	e595801c 	ldr	r8, [r5, #28]
 20029dc:	eb0001a3 	bl	2003070 <DebugPrint>
 20029e0:	e1a03824 	lsr	r3, r4, #16
 20029e4:	e1a03803 	lsl	r3, r3, #16
 20029e8:	e3530000 	cmp	r3, #0
 20029ec:	1a000028 	bne	2002a94 <GBKGetFontBitmap+0xe8>
 20029f0:	e1a03424 	lsr	r3, r4, #8
 20029f4:	e6ef4074 	uxtb	r4, r4
 20029f8:	e24330a1 	sub	r3, r3, #161	; 0xa1
 20029fc:	e24440a1 	sub	r4, r4, #161	; 0xa1
 2002a00:	e1a06fa3 	lsr	r6, r3, #31
 2002a04:	e1966fa4 	orrs	r6, r6, r4, lsr #31
 2002a08:	1a000027 	bne	2002aac <GBKGetFontBitmap+0x100>
 2002a0c:	e3a0105e 	mov	r1, #94	; 0x5e
 2002a10:	e30c287c 	movw	r2, #51324	; 0xc87c
 2002a14:	e0243491 	mla	r4, r1, r4, r3
 2002a18:	e3402201 	movt	r2, #513	; 0x201
 2002a1c:	e5857000 	str	r7, [r5]
 2002a20:	e2480010 	sub	r0, r8, #16
 2002a24:	e5923000 	ldr	r3, [r2]
 2002a28:	e2877010 	add	r7, r7, #16
 2002a2c:	e592c004 	ldr	ip, [r2, #4]
 2002a30:	e3a01001 	mov	r1, #1
 2002a34:	e3a02002 	mov	r2, #2
 2002a38:	e5857008 	str	r7, [r5, #8]
 2002a3c:	e0834284 	add	r4, r3, r4, lsl #5
 2002a40:	e585800c 	str	r8, [r5, #12]
 2002a44:	e154000c 	cmp	r4, ip
 2002a48:	e5854028 	str	r4, [r5, #40]	; 0x28
 2002a4c:	e5850004 	str	r0, [r5, #4]
 2002a50:	e5851010 	str	r1, [r5, #16]
 2002a54:	e5852014 	str	r2, [r5, #20]
 2002a58:	2a00000b 	bcs	2002a8c <GBKGetFontBitmap+0xe0>
 2002a5c:	e5857020 	str	r7, [r5, #32]
 2002a60:	e3a03075 	mov	r3, #117	; 0x75
 2002a64:	e5858024 	str	r8, [r5, #36]	; 0x24
 2002a68:	e30a2a00 	movw	r2, #43520	; 0xaa00
 2002a6c:	e30a1c60 	movw	r1, #44128	; 0xac60
 2002a70:	e3402200 	movt	r2, #512	; 0x200
 2002a74:	e3401200 	movt	r1, #512	; 0x200
 2002a78:	e30a0c68 	movw	r0, #44136	; 0xac68
 2002a7c:	e3400200 	movt	r0, #512	; 0x200
 2002a80:	eb00017a 	bl	2003070 <DebugPrint>
 2002a84:	e1a00006 	mov	r0, r6
 2002a88:	e8bd81f0 	pop	{r4, r5, r6, r7, r8, pc}
 2002a8c:	e3e00000 	mvn	r0, #0
 2002a90:	e8bd81f0 	pop	{r4, r5, r6, r7, r8, pc}
 2002a94:	e1a01004 	mov	r1, r4
 2002a98:	e30a0c74 	movw	r0, #44148	; 0xac74
 2002a9c:	e3400200 	movt	r0, #512	; 0x200
 2002aa0:	eb000172 	bl	2003070 <DebugPrint>
 2002aa4:	e3e00000 	mvn	r0, #0
 2002aa8:	e8bd81f0 	pop	{r4, r5, r6, r7, r8, pc}
 2002aac:	e3a03061 	mov	r3, #97	; 0x61
 2002ab0:	e30a2a00 	movw	r2, #43520	; 0xaa00
 2002ab4:	e30a1c60 	movw	r1, #44128	; 0xac60
 2002ab8:	e3402200 	movt	r2, #512	; 0x200
 2002abc:	e3401200 	movt	r1, #512	; 0x200
 2002ac0:	e30a0c68 	movw	r0, #44136	; 0xac68
 2002ac4:	e3400200 	movt	r0, #512	; 0x200
 2002ac8:	eb000168 	bl	2003070 <DebugPrint>
 2002acc:	e3e00000 	mvn	r0, #0
 2002ad0:	e8bd81f0 	pop	{r4, r5, r6, r7, r8, pc}

02002ad4 <GBKFontInit>:
 2002ad4:	e3510010 	cmp	r1, #16
 2002ad8:	e92d40f0 	push	{r4, r5, r6, r7, lr}
 2002adc:	e24dd0ac 	sub	sp, sp, #172	; 0xac
 2002ae0:	1a00001e 	bne	2002b60 <GBKFontInit+0x8c>
 2002ae4:	e3a01000 	mov	r1, #0
 2002ae8:	e1a05000 	mov	r5, r0
 2002aec:	ebfff9bd 	bl	20011e8 <open@plt>
 2002af0:	e30c487c 	movw	r4, #51324	; 0xc87c
 2002af4:	e3404201 	movt	r4, #513	; 0x201
 2002af8:	e3500000 	cmp	r0, #0
 2002afc:	e5840008 	str	r0, [r4, #8]
 2002b00:	ba000020 	blt	2002b88 <GBKFontInit+0xb4>
 2002b04:	e28d1010 	add	r1, sp, #16
 2002b08:	ebfff989 	bl	2001134 <__fstat_time64@plt>
 2002b0c:	e2505000 	subs	r5, r0, #0
 2002b10:	1a000017 	bne	2002b74 <GBKFontInit+0xa0>
 2002b14:	e594c008 	ldr	ip, [r4, #8]
 2002b18:	e3a03001 	mov	r3, #1
 2002b1c:	e1a02003 	mov	r2, r3
 2002b20:	e59d1040 	ldr	r1, [sp, #64]	; 0x40
 2002b24:	e3a06000 	mov	r6, #0
 2002b28:	e3a07000 	mov	r7, #0
 2002b2c:	e58dc000 	str	ip, [sp]
 2002b30:	e1cd60f8 	strd	r6, [sp, #8]
 2002b34:	ebfffa26 	bl	20013d4 <mmap@plt>
 2002b38:	e3700001 	cmn	r0, #1
 2002b3c:	e1a03000 	mov	r3, r0
 2002b40:	e5840000 	str	r0, [r4]
 2002b44:	159d2040 	ldrne	r2, [sp, #64]	; 0x40
 2002b48:	10803002 	addne	r3, r0, r2
 2002b4c:	15843004 	strne	r3, [r4, #4]
 2002b50:	0a000012 	beq	2002ba0 <GBKFontInit+0xcc>
 2002b54:	e1a00005 	mov	r0, r5
 2002b58:	e28dd0ac 	add	sp, sp, #172	; 0xac
 2002b5c:	e8bd80f0 	pop	{r4, r5, r6, r7, pc}
 2002b60:	e30a0c94 	movw	r0, #44180	; 0xac94
 2002b64:	e3400200 	movt	r0, #512	; 0x200
 2002b68:	eb000140 	bl	2003070 <DebugPrint>
 2002b6c:	e3e05000 	mvn	r5, #0
 2002b70:	eafffff7 	b	2002b54 <GBKFontInit+0x80>
 2002b74:	e30a0cb4 	movw	r0, #44212	; 0xacb4
 2002b78:	e3400200 	movt	r0, #512	; 0x200
 2002b7c:	eb00013b 	bl	2003070 <DebugPrint>
 2002b80:	e3e05000 	mvn	r5, #0
 2002b84:	eafffff2 	b	2002b54 <GBKFontInit+0x80>
 2002b88:	e1a01005 	mov	r1, r5
 2002b8c:	e30a0b3c 	movw	r0, #43836	; 0xab3c
 2002b90:	e3400200 	movt	r0, #512	; 0x200
 2002b94:	e3e05000 	mvn	r5, #0
 2002b98:	eb000134 	bl	2003070 <DebugPrint>
 2002b9c:	eaffffec 	b	2002b54 <GBKFontInit+0x80>
 2002ba0:	e30a0cc8 	movw	r0, #44232	; 0xacc8
 2002ba4:	e3400200 	movt	r0, #512	; 0x200
 2002ba8:	e1a05003 	mov	r5, r3
 2002bac:	eb00012f 	bl	2003070 <DebugPrint>
 2002bb0:	eaffffe7 	b	2002b54 <GBKFontInit+0x80>

02002bb4 <GBKInit>:
 2002bb4:	e30c01d0 	movw	r0, #49616	; 0xc1d0
 2002bb8:	e3400201 	movt	r0, #513	; 0x201
 2002bbc:	eafffeae 	b	200267c <RegisterFontOpr>

02002bc0 <InputEventThreadFunction>:
 2002bc0:	e92d4070 	push	{r4, r5, r6, lr}
 2002bc4:	e30c6888 	movw	r6, #51336	; 0xc888
 2002bc8:	e24dd028 	sub	sp, sp, #40	; 0x28
 2002bcc:	e3406201 	movt	r6, #513	; 0x201
 2002bd0:	e1a05000 	mov	r5, r0
 2002bd4:	e1a0000d 	mov	r0, sp
 2002bd8:	e12fff35 	blx	r5
 2002bdc:	e3500000 	cmp	r0, #0
 2002be0:	1afffffb 	bne	2002bd4 <InputEventThreadFunction+0x14>
 2002be4:	e1a00006 	mov	r0, r6
 2002be8:	e59f4030 	ldr	r4, [pc, #48]	; 2002c20 <InputEventThreadFunction+0x60>
 2002bec:	ebfff9ce 	bl	200132c <pthread_mutex_lock@plt>
 2002bf0:	e1a0c00d 	mov	ip, sp
 2002bf4:	e8bc000f 	ldm	ip!, {r0, r1, r2, r3}
 2002bf8:	e8a4000f 	stmia	r4!, {r0, r1, r2, r3}
 2002bfc:	e8bc000f 	ldm	ip!, {r0, r1, r2, r3}
 2002c00:	e8a4000f 	stmia	r4!, {r0, r1, r2, r3}
 2002c04:	e89c0003 	ldm	ip, {r0, r1}
 2002c08:	e8840003 	stm	r4, {r0, r1}
 2002c0c:	e2840008 	add	r0, r4, #8
 2002c10:	ebfff9c2 	bl	2001320 <pthread_cond_signal@plt>
 2002c14:	e2440038 	sub	r0, r4, #56	; 0x38
 2002c18:	ebfff9ba 	bl	2001308 <pthread_mutex_unlock@plt>
 2002c1c:	eaffffec 	b	2002bd4 <InputEventThreadFunction+0x14>
 2002c20:	0201c8a0 	andeq	ip, r1, #160, 16	; 0xa00000

02002c24 <RegisterInputOpr>:
 2002c24:	e30c3888 	movw	r3, #51336	; 0xc888
 2002c28:	e3403201 	movt	r3, #513	; 0x201
 2002c2c:	e5932070 	ldr	r2, [r3, #112]	; 0x70
 2002c30:	e3520000 	cmp	r2, #0
 2002c34:	05830070 	streq	r0, [r3, #112]	; 0x70
 2002c38:	05802014 	streq	r2, [r0, #20]
 2002c3c:	1a000001 	bne	2002c48 <RegisterInputOpr+0x24>
 2002c40:	ea000005 	b	2002c5c <RegisterInputOpr+0x38>
 2002c44:	e1a02003 	mov	r2, r3
 2002c48:	e5923014 	ldr	r3, [r2, #20]
 2002c4c:	e3530000 	cmp	r3, #0
 2002c50:	1afffffb 	bne	2002c44 <RegisterInputOpr+0x20>
 2002c54:	e5820014 	str	r0, [r2, #20]
 2002c58:	e5803014 	str	r3, [r0, #20]
 2002c5c:	e3a00000 	mov	r0, #0
 2002c60:	e12fff1e 	bx	lr

02002c64 <ShowInputOpr>:
 2002c64:	e30c3888 	movw	r3, #51336	; 0xc888
 2002c68:	e3403201 	movt	r3, #513	; 0x201
 2002c6c:	e92d4070 	push	{r4, r5, r6, lr}
 2002c70:	e5935070 	ldr	r5, [r3, #112]	; 0x70
 2002c74:	e3550000 	cmp	r5, #0
 2002c78:	08bd8070 	popeq	{r4, r5, r6, pc}
 2002c7c:	e30a6afc 	movw	r6, #43772	; 0xaafc
 2002c80:	e3406200 	movt	r6, #512	; 0x200
 2002c84:	e3a04000 	mov	r4, #0
 2002c88:	e5952000 	ldr	r2, [r5]
 2002c8c:	e1a01004 	mov	r1, r4
 2002c90:	e1a00006 	mov	r0, r6
 2002c94:	e2844001 	add	r4, r4, #1
 2002c98:	ebfff96a 	bl	2001248 <printf@plt>
 2002c9c:	e5955014 	ldr	r5, [r5, #20]
 2002ca0:	e3550000 	cmp	r5, #0
 2002ca4:	1afffff7 	bne	2002c88 <ShowInputOpr+0x24>
 2002ca8:	e8bd8070 	pop	{r4, r5, r6, pc}

02002cac <AllInputDevicesInit>:
 2002cac:	e30c3888 	movw	r3, #51336	; 0xc888
 2002cb0:	e3403201 	movt	r3, #513	; 0x201
 2002cb4:	e92d41f0 	push	{r4, r5, r6, r7, r8, lr}
 2002cb8:	e5934070 	ldr	r4, [r3, #112]	; 0x70
 2002cbc:	e3540000 	cmp	r4, #0
 2002cc0:	03e07000 	mvneq	r7, #0
 2002cc4:	0a000013 	beq	2002d18 <AllInputDevicesInit+0x6c>
 2002cc8:	e3026bc0 	movw	r6, #11200	; 0x2bc0
 2002ccc:	e3e07000 	mvn	r7, #0
 2002cd0:	e3406200 	movt	r6, #512	; 0x200
 2002cd4:	ea000002 	b	2002ce4 <AllInputDevicesInit+0x38>
 2002cd8:	e5944014 	ldr	r4, [r4, #20]
 2002cdc:	e3540000 	cmp	r4, #0
 2002ce0:	0a00000c 	beq	2002d18 <AllInputDevicesInit+0x6c>
 2002ce4:	e5943008 	ldr	r3, [r4, #8]
 2002ce8:	e12fff33 	blx	r3
 2002cec:	e2505000 	subs	r5, r0, #0
 2002cf0:	1afffff8 	bne	2002cd8 <AllInputDevicesInit+0x2c>
 2002cf4:	e5943010 	ldr	r3, [r4, #16]
 2002cf8:	e2840004 	add	r0, r4, #4
 2002cfc:	e1a02006 	mov	r2, r6
 2002d00:	e1a01005 	mov	r1, r5
 2002d04:	ebfff928 	bl	20011ac <pthread_create@plt>
 2002d08:	e5944014 	ldr	r4, [r4, #20]
 2002d0c:	e1a07005 	mov	r7, r5
 2002d10:	e3540000 	cmp	r4, #0
 2002d14:	1afffff2 	bne	2002ce4 <AllInputDevicesInit+0x38>
 2002d18:	e1a00007 	mov	r0, r7
 2002d1c:	e8bd81f0 	pop	{r4, r5, r6, r7, r8, pc}

02002d20 <GetInputEvent>:
 2002d20:	e92d4070 	push	{r4, r5, r6, lr}
 2002d24:	e30c5888 	movw	r5, #51336	; 0xc888
 2002d28:	e3405201 	movt	r5, #513	; 0x201
 2002d2c:	e1a04000 	mov	r4, r0
 2002d30:	e1a00005 	mov	r0, r5
 2002d34:	ebfff97c 	bl	200132c <pthread_mutex_lock@plt>
 2002d38:	e1a01005 	mov	r1, r5
 2002d3c:	e2850040 	add	r0, r5, #64	; 0x40
 2002d40:	ebfff931 	bl	200120c <pthread_cond_wait@plt>
 2002d44:	e285e018 	add	lr, r5, #24
 2002d48:	e1a0c004 	mov	ip, r4
 2002d4c:	e8be000f 	ldm	lr!, {r0, r1, r2, r3}
 2002d50:	e8ac000f 	stmia	ip!, {r0, r1, r2, r3}
 2002d54:	e8be000f 	ldm	lr!, {r0, r1, r2, r3}
 2002d58:	e8ac000f 	stmia	ip!, {r0, r1, r2, r3}
 2002d5c:	e89e0003 	ldm	lr, {r0, r1}
 2002d60:	e88c0003 	stm	ip, {r0, r1}
 2002d64:	e1a00005 	mov	r0, r5
 2002d68:	ebfff966 	bl	2001308 <pthread_mutex_unlock@plt>
 2002d6c:	e3a00000 	mov	r0, #0
 2002d70:	e8bd8070 	pop	{r4, r5, r6, pc}

02002d74 <InputInit>:
 2002d74:	ea000072 	b	2002f44 <TouchScreenInit>

02002d78 <StdinGetInputEvent>:
 2002d78:	e30b3efc 	movw	r3, #48892	; 0xbefc
 2002d7c:	e3403201 	movt	r3, #513	; 0x201
 2002d80:	e92d4070 	push	{r4, r5, r6, lr}
 2002d84:	e1a05000 	mov	r5, r0
 2002d88:	e3a04000 	mov	r4, #0
 2002d8c:	e5930000 	ldr	r0, [r3]
 2002d90:	e5854010 	str	r4, [r5, #16]
 2002d94:	ebfff937 	bl	2001278 <fgetc@plt>
 2002d98:	e1a01004 	mov	r1, r4
 2002d9c:	e1a00005 	mov	r0, r5
 2002da0:	ebfff95b 	bl	2001314 <__gettimeofday_time64@plt>
 2002da4:	e1a00004 	mov	r0, r4
 2002da8:	e8bd8070 	pop	{r4, r5, r6, pc}

02002dac <StdinDevExit>:
 2002dac:	e52de004 	push	{lr}		; (str lr, [sp, #-4]!)
 2002db0:	e24dd044 	sub	sp, sp, #68	; 0x44
 2002db4:	e28d1004 	add	r1, sp, #4
 2002db8:	e3a00000 	mov	r0, #0
 2002dbc:	ebfff939 	bl	20012a8 <tcgetattr@plt>
 2002dc0:	e59d3010 	ldr	r3, [sp, #16]
 2002dc4:	e3a01000 	mov	r1, #0
 2002dc8:	e28d2004 	add	r2, sp, #4
 2002dcc:	e1a00001 	mov	r0, r1
 2002dd0:	e3833002 	orr	r3, r3, #2
 2002dd4:	e58d3010 	str	r3, [sp, #16]
 2002dd8:	ebfff8c6 	bl	20010f8 <tcsetattr@plt>
 2002ddc:	e3a00000 	mov	r0, #0
 2002de0:	e28dd044 	add	sp, sp, #68	; 0x44
 2002de4:	e49df004 	pop	{pc}		; (ldr pc, [sp], #4)

02002de8 <StdinDevInit>:
 2002de8:	e52de004 	push	{lr}		; (str lr, [sp, #-4]!)
 2002dec:	e24dd044 	sub	sp, sp, #68	; 0x44
 2002df0:	e28d1004 	add	r1, sp, #4
 2002df4:	e3a00000 	mov	r0, #0
 2002df8:	ebfff92a 	bl	20012a8 <tcgetattr@plt>
 2002dfc:	e59d3010 	ldr	r3, [sp, #16]
 2002e00:	e3a01000 	mov	r1, #0
 2002e04:	e28d2004 	add	r2, sp, #4
 2002e08:	e1a00001 	mov	r0, r1
 2002e0c:	e3c33002 	bic	r3, r3, #2
 2002e10:	e3a0c001 	mov	ip, #1
 2002e14:	e58d3010 	str	r3, [sp, #16]
 2002e18:	e5cdc01b 	strb	ip, [sp, #27]
 2002e1c:	ebfff8b5 	bl	20010f8 <tcsetattr@plt>
 2002e20:	e3a00000 	mov	r0, #0
 2002e24:	e28dd044 	add	sp, sp, #68	; 0x44
 2002e28:	e49df004 	pop	{pc}		; (ldr pc, [sp], #4)

02002e2c <StdinInit>:
 2002e2c:	e30c01e4 	movw	r0, #49636	; 0xc1e4
 2002e30:	e3400201 	movt	r0, #513	; 0x201
 2002e34:	eaffff7a 	b	2002c24 <RegisterInputOpr>

02002e38 <TouchScreenGetInputEvent>:
 2002e38:	e92d4070 	push	{r4, r5, r6, lr}
 2002e3c:	e30c51fc 	movw	r5, #49660	; 0xc1fc
 2002e40:	e3405201 	movt	r5, #513	; 0x201
 2002e44:	e24dd038 	sub	sp, sp, #56	; 0x38
 2002e48:	e3a03001 	mov	r3, #1
 2002e4c:	e1a04000 	mov	r4, r0
 2002e50:	e595c000 	ldr	ip, [r5]
 2002e54:	e1a01003 	mov	r1, r3
 2002e58:	e3e02000 	mvn	r2, #0
 2002e5c:	e1a0000d 	mov	r0, sp
 2002e60:	e58d3004 	str	r3, [sp, #4]
 2002e64:	e58dc000 	str	ip, [sp]
 2002e68:	ebfff8f3 	bl	200123c <poll@plt>
 2002e6c:	e3500001 	cmp	r0, #1
 2002e70:	1a000018 	bne	2002ed8 <TouchScreenGetInputEvent+0xa0>
 2002e74:	e1dd60f6 	ldrsh	r6, [sp, #6]
 2002e78:	e3560001 	cmp	r6, #1
 2002e7c:	1a000015 	bne	2002ed8 <TouchScreenGetInputEvent+0xa0>
 2002e80:	e28d2008 	add	r2, sp, #8
 2002e84:	e5950000 	ldr	r0, [r5]
 2002e88:	e3a01000 	mov	r1, #0
 2002e8c:	ebfff896 	bl	20010ec <ioctl@plt>
 2002e90:	e28d1008 	add	r1, sp, #8
 2002e94:	e5846010 	str	r6, [r4, #16]
 2002e98:	e891000e 	ldm	r1, {r1, r2, r3}
 2002e9c:	e3530000 	cmp	r3, #0
 2002ea0:	e5843020 	str	r3, [r4, #32]
 2002ea4:	e30c38fc 	movw	r3, #51452	; 0xc8fc
 2002ea8:	e3403201 	movt	r3, #513	; 0x201
 2002eac:	e5841014 	str	r1, [r4, #20]
 2002eb0:	e5842018 	str	r2, [r4, #24]
 2002eb4:	05930004 	ldreq	r0, [r3, #4]
 2002eb8:	0593c000 	ldreq	ip, [r3]
 2002ebc:	e5832004 	str	r2, [r3, #4]
 2002ec0:	e5831000 	str	r1, [r3]
 2002ec4:	05840018 	streq	r0, [r4, #24]
 2002ec8:	e3a00000 	mov	r0, #0
 2002ecc:	0584c014 	streq	ip, [r4, #20]
 2002ed0:	e28dd038 	add	sp, sp, #56	; 0x38
 2002ed4:	e8bd8070 	pop	{r4, r5, r6, pc}
 2002ed8:	e3e00000 	mvn	r0, #0
 2002edc:	e28dd038 	add	sp, sp, #56	; 0x38
 2002ee0:	e8bd8070 	pop	{r4, r5, r6, pc}

02002ee4 <TouchScreenDevExit>:
 2002ee4:	e30c31fc 	movw	r3, #49660	; 0xc1fc
 2002ee8:	e3403201 	movt	r3, #513	; 0x201
 2002eec:	e92d4010 	push	{r4, lr}
 2002ef0:	e5930000 	ldr	r0, [r3]
 2002ef4:	ebfff8f4 	bl	20012cc <close@plt>
 2002ef8:	e3a00000 	mov	r0, #0
 2002efc:	e8bd8010 	pop	{r4, pc}

02002f00 <TouchScreenDevInit>:
 2002f00:	e92d4010 	push	{r4, lr}
 2002f04:	e30a0ce8 	movw	r0, #44264	; 0xace8
 2002f08:	e3a01002 	mov	r1, #2
 2002f0c:	e3400200 	movt	r0, #512	; 0x200
 2002f10:	ebfff8b4 	bl	20011e8 <open@plt>
 2002f14:	e30c31fc 	movw	r3, #49660	; 0xc1fc
 2002f18:	e3403201 	movt	r3, #513	; 0x201
 2002f1c:	e3500000 	cmp	r0, #0
 2002f20:	e5830000 	str	r0, [r3]
 2002f24:	ba000001 	blt	2002f30 <TouchScreenDevInit+0x30>
 2002f28:	e3a00000 	mov	r0, #0
 2002f2c:	e8bd8010 	pop	{r4, pc}
 2002f30:	e30a0cfc 	movw	r0, #44284	; 0xacfc
 2002f34:	e3400200 	movt	r0, #512	; 0x200
 2002f38:	ebfff904 	bl	2001350 <puts@plt>
 2002f3c:	e3e00000 	mvn	r0, #0
 2002f40:	e8bd8010 	pop	{r4, pc}

02002f44 <TouchScreenInit>:
 2002f44:	e59f0000 	ldr	r0, [pc]	; 2002f4c <TouchScreenInit+0x8>
 2002f48:	eaffff35 	b	2002c24 <RegisterInputOpr>
 2002f4c:	0201c200 	andeq	ip, r1, #0, 4

02002f50 <RegisterDebugOpr>:
 2002f50:	e30c3904 	movw	r3, #51460	; 0xc904
 2002f54:	e3403201 	movt	r3, #513	; 0x201
 2002f58:	e5932000 	ldr	r2, [r3]
 2002f5c:	e3520000 	cmp	r2, #0
 2002f60:	05830000 	streq	r0, [r3]
 2002f64:	05802014 	streq	r2, [r0, #20]
 2002f68:	1a000001 	bne	2002f74 <RegisterDebugOpr+0x24>
 2002f6c:	ea000005 	b	2002f88 <RegisterDebugOpr+0x38>
 2002f70:	e1a02003 	mov	r2, r3
 2002f74:	e5923014 	ldr	r3, [r2, #20]
 2002f78:	e3530000 	cmp	r3, #0
 2002f7c:	1afffffb 	bne	2002f70 <RegisterDebugOpr+0x20>
 2002f80:	e5820014 	str	r0, [r2, #20]
 2002f84:	e5803014 	str	r3, [r0, #20]
 2002f88:	e3a00000 	mov	r0, #0
 2002f8c:	e12fff1e 	bx	lr

02002f90 <GetDebugOpr>:
 2002f90:	e30c3904 	movw	r3, #51460	; 0xc904
 2002f94:	e3403201 	movt	r3, #513	; 0x201
 2002f98:	e92d4070 	push	{r4, r5, r6, lr}
 2002f9c:	e5934000 	ldr	r4, [r3]
 2002fa0:	e3540000 	cmp	r4, #0
 2002fa4:	0a000009 	beq	2002fd0 <GetDebugOpr+0x40>
 2002fa8:	e1a05000 	mov	r5, r0
 2002fac:	ea000002 	b	2002fbc <GetDebugOpr+0x2c>
 2002fb0:	e5944014 	ldr	r4, [r4, #20]
 2002fb4:	e3540000 	cmp	r4, #0
 2002fb8:	0a000004 	beq	2002fd0 <GetDebugOpr+0x40>
 2002fbc:	e1a01005 	mov	r1, r5
 2002fc0:	e5940000 	ldr	r0, [r4]
 2002fc4:	ebfff854 	bl	200111c <strcmp@plt>
 2002fc8:	e3500000 	cmp	r0, #0
 2002fcc:	1afffff7 	bne	2002fb0 <GetDebugOpr+0x20>
 2002fd0:	e1a00004 	mov	r0, r4
 2002fd4:	e8bd8070 	pop	{r4, r5, r6, pc}

02002fd8 <SetDbgLevel>:
 2002fd8:	e5d02009 	ldrb	r2, [r0, #9]
 2002fdc:	e30c3218 	movw	r3, #49688	; 0xc218
 2002fe0:	e3403201 	movt	r3, #513	; 0x201
 2002fe4:	e3a00000 	mov	r0, #0
 2002fe8:	e2422030 	sub	r2, r2, #48	; 0x30
 2002fec:	e5832000 	str	r2, [r3]
 2002ff0:	e12fff1e 	bx	lr

02002ff4 <SetDbgChanel>:
 2002ff4:	e92d4070 	push	{r4, r5, r6, lr}
 2002ff8:	e3a0103d 	mov	r1, #61	; 0x3d
 2002ffc:	e24dd068 	sub	sp, sp, #104	; 0x68
 2003000:	e1a04000 	mov	r4, r0
 2003004:	ebfff883 	bl	2001218 <strchr@plt>
 2003008:	e2506000 	subs	r6, r0, #0
 200300c:	0a000015 	beq	2003068 <SetDbgChanel+0x74>
 2003010:	e0465004 	sub	r5, r6, r4
 2003014:	e1a01004 	mov	r1, r4
 2003018:	e28d0004 	add	r0, sp, #4
 200301c:	e3a04000 	mov	r4, #0
 2003020:	e1a02005 	mov	r2, r5
 2003024:	ebfff890 	bl	200126c <strncpy@plt>
 2003028:	e28d3068 	add	r3, sp, #104	; 0x68
 200302c:	e0835005 	add	r5, r3, r5
 2003030:	e28d0004 	add	r0, sp, #4
 2003034:	e5454064 	strb	r4, [r5, #-100]	; 0xffffff9c
 2003038:	ebffffd4 	bl	2002f90 <GetDebugOpr>
 200303c:	e2503000 	subs	r3, r0, #0
 2003040:	0a000008 	beq	2003068 <SetDbgChanel+0x74>
 2003044:	e5d62001 	ldrb	r2, [r6, #1]
 2003048:	e3520030 	cmp	r2, #48	; 0x30
 200304c:	05834004 	streq	r4, [r3, #4]
 2003050:	01a00004 	moveq	r0, r4
 2003054:	11a00004 	movne	r0, r4
 2003058:	13a02001 	movne	r2, #1
 200305c:	15832004 	strne	r2, [r3, #4]
 2003060:	e28dd068 	add	sp, sp, #104	; 0x68
 2003064:	e8bd8070 	pop	{r4, r5, r6, pc}
 2003068:	e3e00000 	mvn	r0, #0
 200306c:	eafffffb 	b	2003060 <SetDbgChanel+0x6c>

02003070 <DebugPrint>:
 2003070:	e92d000f 	push	{r0, r1, r2, r3}
 2003074:	e30c3904 	movw	r3, #51460	; 0xc904
 2003078:	e92d4030 	push	{r4, r5, lr}
 200307c:	e24ddffd 	sub	sp, sp, #1012	; 0x3f4
 2003080:	e28dcb01 	add	ip, sp, #1024	; 0x400
 2003084:	e3403201 	movt	r3, #513	; 0x201
 2003088:	e28cc004 	add	ip, ip, #4
 200308c:	e28d0008 	add	r0, sp, #8
 2003090:	e59d1400 	ldr	r1, [sp, #1024]	; 0x400
 2003094:	e1a0200c 	mov	r2, ip
 2003098:	e5934000 	ldr	r4, [r3]
 200309c:	e58dc004 	str	ip, [sp, #4]
 20030a0:	ebfff80e 	bl	20010e0 <vsprintf@plt>
 20030a4:	e28d2e3f 	add	r2, sp, #1008	; 0x3f0
 20030a8:	e3a03000 	mov	r3, #0
 20030ac:	e0820000 	add	r0, r2, r0
 20030b0:	e54033e8 	strb	r3, [r0, #-1000]	; 0xfffffc18
 20030b4:	e5dd3008 	ldrb	r3, [sp, #8]
 20030b8:	e353003c 	cmp	r3, #60	; 0x3c
 20030bc:	0a000015 	beq	2003118 <DebugPrint+0xa8>
 20030c0:	e28d5008 	add	r5, sp, #8
 20030c4:	e3a02004 	mov	r2, #4
 20030c8:	e30c3218 	movw	r3, #49688	; 0xc218
 20030cc:	e3403201 	movt	r3, #513	; 0x201
 20030d0:	e5933000 	ldr	r3, [r3]
 20030d4:	e1530002 	cmp	r3, r2
 20030d8:	aa000007 	bge	20030fc <DebugPrint+0x8c>
 20030dc:	ea000016 	b	200313c <DebugPrint+0xcc>
 20030e0:	e5943004 	ldr	r3, [r4, #4]
 20030e4:	e1a00005 	mov	r0, r5
 20030e8:	e3530000 	cmp	r3, #0
 20030ec:	0a000001 	beq	20030f8 <DebugPrint+0x88>
 20030f0:	e5943010 	ldr	r3, [r4, #16]
 20030f4:	e12fff33 	blx	r3
 20030f8:	e5944014 	ldr	r4, [r4, #20]
 20030fc:	e3540000 	cmp	r4, #0
 2003100:	1afffff6 	bne	20030e0 <DebugPrint+0x70>
 2003104:	e3a00000 	mov	r0, #0
 2003108:	e28ddffd 	add	sp, sp, #1012	; 0x3f4
 200310c:	e8bd4030 	pop	{r4, r5, lr}
 2003110:	e28dd010 	add	sp, sp, #16
 2003114:	e12fff1e 	bx	lr
 2003118:	e5dd300a 	ldrb	r3, [sp, #10]
 200311c:	e353003e 	cmp	r3, #62	; 0x3e
 2003120:	1affffe6 	bne	20030c0 <DebugPrint+0x50>
 2003124:	e5dd2009 	ldrb	r2, [sp, #9]
 2003128:	e2422030 	sub	r2, r2, #48	; 0x30
 200312c:	e3520009 	cmp	r2, #9
 2003130:	928d500b 	addls	r5, sp, #11
 2003134:	9affffe3 	bls	20030c8 <DebugPrint+0x58>
 2003138:	eaffffe0 	b	20030c0 <DebugPrint+0x50>
 200313c:	e3e00000 	mvn	r0, #0
 2003140:	eafffff0 	b	2003108 <DebugPrint+0x98>

02003144 <ShowDebugOpr>:
 2003144:	e30c3904 	movw	r3, #51460	; 0xc904
 2003148:	e3403201 	movt	r3, #513	; 0x201
 200314c:	e92d4070 	push	{r4, r5, r6, lr}
 2003150:	e5935000 	ldr	r5, [r3]
 2003154:	e3550000 	cmp	r5, #0
 2003158:	08bd8070 	popeq	{r4, r5, r6, pc}
 200315c:	e30a6afc 	movw	r6, #43772	; 0xaafc
 2003160:	e3406200 	movt	r6, #512	; 0x200
 2003164:	e3a04000 	mov	r4, #0
 2003168:	e5952000 	ldr	r2, [r5]
 200316c:	e1a01004 	mov	r1, r4
 2003170:	e1a00006 	mov	r0, r6
 2003174:	e2844001 	add	r4, r4, #1
 2003178:	ebffffbc 	bl	2003070 <DebugPrint>
 200317c:	e5955014 	ldr	r5, [r5, #20]
 2003180:	e3550000 	cmp	r5, #0
 2003184:	1afffff7 	bne	2003168 <ShowDebugOpr+0x24>
 2003188:	e8bd8070 	pop	{r4, r5, r6, pc}

0200318c <InitDebugChanel>:
 200318c:	e30c3904 	movw	r3, #51460	; 0xc904
 2003190:	e3403201 	movt	r3, #513	; 0x201
 2003194:	e92d4010 	push	{r4, lr}
 2003198:	e5934000 	ldr	r4, [r3]
 200319c:	e3540000 	cmp	r4, #0
 20031a0:	0a000009 	beq	20031cc <InitDebugChanel+0x40>
 20031a4:	e5943004 	ldr	r3, [r4, #4]
 20031a8:	e3530000 	cmp	r3, #0
 20031ac:	0a000003 	beq	20031c0 <InitDebugChanel+0x34>
 20031b0:	e5943008 	ldr	r3, [r4, #8]
 20031b4:	e3530000 	cmp	r3, #0
 20031b8:	0a000000 	beq	20031c0 <InitDebugChanel+0x34>
 20031bc:	e12fff33 	blx	r3
 20031c0:	e5944014 	ldr	r4, [r4, #20]
 20031c4:	e3540000 	cmp	r4, #0
 20031c8:	1afffff5 	bne	20031a4 <InitDebugChanel+0x18>
 20031cc:	e3a00000 	mov	r0, #0
 20031d0:	e8bd8010 	pop	{r4, pc}

020031d4 <DebugInit>:
 20031d4:	ea000008 	b	20031fc <StdoutInit>

020031d8 <StdoutDebugPrint>:
 20031d8:	e92d4010 	push	{r4, lr}
 20031dc:	e1a04000 	mov	r4, r0
 20031e0:	e1a01004 	mov	r1, r4
 20031e4:	e30a0d28 	movw	r0, #44328	; 0xad28
 20031e8:	e3400200 	movt	r0, #512	; 0x200
 20031ec:	ebfff815 	bl	2001248 <printf@plt>
 20031f0:	e1a00004 	mov	r0, r4
 20031f4:	e8bd4010 	pop	{r4, lr}
 20031f8:	eafff86f 	b	20013bc <strlen@plt>

020031fc <StdoutInit>:
 20031fc:	e30c021c 	movw	r0, #49692	; 0xc21c
 2003200:	e3400201 	movt	r0, #513	; 0x201
 2003204:	eaffff51 	b	2002f50 <RegisterDebugOpr>

02003208 <NetDbgPrint>:
 2003208:	e92d47f0 	push	{r4, r5, r6, r7, r8, r9, sl, lr}
 200320c:	e30c9908 	movw	r9, #51464	; 0xc908
 2003210:	e3409201 	movt	r9, #513	; 0x201
 2003214:	e1a05000 	mov	r5, r0
 2003218:	e3a08000 	mov	r8, #0
 200321c:	e2404001 	sub	r4, r0, #1
 2003220:	e5996000 	ldr	r6, [r9]
 2003224:	e5997004 	ldr	r7, [r9, #4]
 2003228:	ea00000b 	b	200325c <NetDbgPrint+0x54>
 200322c:	e5991008 	ldr	r1, [r9, #8]
 2003230:	e5f40001 	ldrb	r0, [r4, #1]!
 2003234:	e2813001 	add	r3, r1, #1
 2003238:	e2732000 	rsbs	r2, r3, #0
 200323c:	e7ed3053 	ubfx	r3, r3, #0, #14
 2003240:	e7ed2052 	ubfx	r2, r2, #0, #14
 2003244:	52623000 	rsbpl	r3, r2, #0
 2003248:	e1530006 	cmp	r3, r6
 200324c:	0a000006 	beq	200326c <NetDbgPrint+0x64>
 2003250:	e2888001 	add	r8, r8, #1
 2003254:	e7c70001 	strb	r0, [r7, r1]
 2003258:	e5893008 	str	r3, [r9, #8]
 200325c:	e1a00005 	mov	r0, r5
 2003260:	ebfff855 	bl	20013bc <strlen@plt>
 2003264:	e1500008 	cmp	r0, r8
 2003268:	8affffef 	bhi	200322c <NetDbgPrint+0x24>
 200326c:	e59f0018 	ldr	r0, [pc, #24]	; 200328c <NetDbgPrint+0x84>
 2003270:	ebfff82d 	bl	200132c <pthread_mutex_lock@plt>
 2003274:	e59f0014 	ldr	r0, [pc, #20]	; 2003290 <NetDbgPrint+0x88>
 2003278:	ebfff828 	bl	2001320 <pthread_cond_signal@plt>
 200327c:	e59f0008 	ldr	r0, [pc, #8]	; 200328c <NetDbgPrint+0x84>
 2003280:	ebfff820 	bl	2001308 <pthread_mutex_unlock@plt>
 2003284:	e1a00008 	mov	r0, r8
 2003288:	e8bd87f0 	pop	{r4, r5, r6, r7, r8, r9, sl, pc}
 200328c:	0201c914 	andeq	ip, r1, #20, 18	; 0x50000
 2003290:	0201c92c 	andeq	ip, r1, #44, 18	; 0xb0000

02003294 <NetDbgExit>:
 2003294:	e92d4010 	push	{r4, lr}
 2003298:	e30c4908 	movw	r4, #51464	; 0xc908
 200329c:	e3404201 	movt	r4, #513	; 0x201
 20032a0:	e5940054 	ldr	r0, [r4, #84]	; 0x54
 20032a4:	ebfff808 	bl	20012cc <close@plt>
 20032a8:	e5940004 	ldr	r0, [r4, #4]
 20032ac:	ebfff824 	bl	2001344 <free@plt>
 20032b0:	e3a00000 	mov	r0, #0
 20032b4:	e8bd8010 	pop	{r4, pc}

020032b8 <NetDbgInit>:
 20032b8:	e3a01002 	mov	r1, #2
 20032bc:	e3a02000 	mov	r2, #0
 20032c0:	e92d4070 	push	{r4, r5, r6, lr}
 20032c4:	e1a00001 	mov	r0, r1
 20032c8:	ebfff7fc 	bl	20012c0 <socket@plt>
 20032cc:	e30c4908 	movw	r4, #51464	; 0xc908
 20032d0:	e3404201 	movt	r4, #513	; 0x201
 20032d4:	e3700001 	cmn	r0, #1
 20032d8:	e5840054 	str	r0, [r4, #84]	; 0x54
 20032dc:	0a000023 	beq	2003370 <NetDbgInit+0xb8>
 20032e0:	e301062e 	movw	r0, #5678	; 0x162e
 20032e4:	e3a03002 	mov	r3, #2
 20032e8:	e1c435b8 	strh	r3, [r4, #88]	; 0x58
 20032ec:	ebfff7ff 	bl	20012f0 <htons@plt>
 20032f0:	e3a02010 	mov	r2, #16
 20032f4:	e2841058 	add	r1, r4, #88	; 0x58
 20032f8:	e3a06000 	mov	r6, #0
 20032fc:	e5846060 	str	r6, [r4, #96]	; 0x60
 2003300:	e584605c 	str	r6, [r4, #92]	; 0x5c
 2003304:	e5846064 	str	r6, [r4, #100]	; 0x64
 2003308:	e1c405ba 	strh	r0, [r4, #90]	; 0x5a
 200330c:	e5940054 	ldr	r0, [r4, #84]	; 0x54
 2003310:	ebfff7c6 	bl	2001230 <bind@plt>
 2003314:	e3700001 	cmn	r0, #1
 2003318:	e1a05000 	mov	r5, r0
 200331c:	0a000018 	beq	2003384 <NetDbgInit+0xcc>
 2003320:	e3a00901 	mov	r0, #16384	; 0x4000
 2003324:	ebfff791 	bl	2001170 <malloc@plt>
 2003328:	e3500000 	cmp	r0, #0
 200332c:	e5840004 	str	r0, [r4, #4]
 2003330:	0a000017 	beq	2003394 <NetDbgInit+0xdc>
 2003334:	e1a03006 	mov	r3, r6
 2003338:	e1a01006 	mov	r1, r6
 200333c:	e3032484 	movw	r2, #13444	; 0x3484
 2003340:	e2840068 	add	r0, r4, #104	; 0x68
 2003344:	e3402200 	movt	r2, #512	; 0x200
 2003348:	e1a05006 	mov	r5, r6
 200334c:	ebfff796 	bl	20011ac <pthread_create@plt>
 2003350:	e30323a4 	movw	r2, #13220	; 0x33a4
 2003354:	e1a03006 	mov	r3, r6
 2003358:	e284006c 	add	r0, r4, #108	; 0x6c
 200335c:	e1a01006 	mov	r1, r6
 2003360:	e3402200 	movt	r2, #512	; 0x200
 2003364:	ebfff790 	bl	20011ac <pthread_create@plt>
 2003368:	e1a00005 	mov	r0, r5
 200336c:	e8bd8070 	pop	{r4, r5, r6, pc}
 2003370:	e1a05000 	mov	r5, r0
 2003374:	e30a0d34 	movw	r0, #44340	; 0xad34
 2003378:	e3400200 	movt	r0, #512	; 0x200
 200337c:	ebfff7f3 	bl	2001350 <puts@plt>
 2003380:	eafffff8 	b	2003368 <NetDbgInit+0xb0>
 2003384:	e30a0d44 	movw	r0, #44356	; 0xad44
 2003388:	e3400200 	movt	r0, #512	; 0x200
 200338c:	ebfff7ef 	bl	2001350 <puts@plt>
 2003390:	eafffff4 	b	2003368 <NetDbgInit+0xb0>
 2003394:	e5940054 	ldr	r0, [r4, #84]	; 0x54
 2003398:	e3e05000 	mvn	r5, #0
 200339c:	ebfff7ca 	bl	20012cc <close@plt>
 20033a0:	eafffff0 	b	2003368 <NetDbgInit+0xb0>

020033a4 <NetDbgRecvTreadFunction>:
 20033a4:	e92d4ff0 	push	{r4, r5, r6, r7, r8, r9, sl, fp, lr}
 20033a8:	e24ddb01 	sub	sp, sp, #1024	; 0x400
 20033ac:	e24dd00c 	sub	sp, sp, #12
 20033b0:	e30c6908 	movw	r6, #51464	; 0xc908
 20033b4:	e3406201 	movt	r6, #513	; 0x201
 20033b8:	e30a7d50 	movw	r7, #44368	; 0xad50
 20033bc:	e30aad6c 	movw	sl, #44396	; 0xad6c
 20033c0:	e2869070 	add	r9, r6, #112	; 0x70
 20033c4:	e3407200 	movt	r7, #512	; 0x200
 20033c8:	e340a200 	movt	sl, #512	; 0x200
 20033cc:	e28d800c 	add	r8, sp, #12
 20033d0:	e28d4010 	add	r4, sp, #16
 20033d4:	e3a0b000 	mov	fp, #0
 20033d8:	e3a05010 	mov	r5, #16
 20033dc:	e1a00007 	mov	r0, r7
 20033e0:	e58d500c 	str	r5, [sp, #12]
 20033e4:	ebffff21 	bl	2003070 <DebugPrint>
 20033e8:	e5960054 	ldr	r0, [r6, #84]	; 0x54
 20033ec:	e58d8004 	str	r8, [sp, #4]
 20033f0:	e3a03000 	mov	r3, #0
 20033f4:	e58d4000 	str	r4, [sp]
 20033f8:	e30023e7 	movw	r2, #999	; 0x3e7
 20033fc:	e28d1020 	add	r1, sp, #32
 2003400:	ebfff751 	bl	200114c <recvfrom@plt>
 2003404:	e3500000 	cmp	r0, #0
 2003408:	dafffff3 	ble	20033dc <NetDbgRecvTreadFunction+0x38>
 200340c:	e28d3b01 	add	r3, sp, #1024	; 0x400
 2003410:	e28d1020 	add	r1, sp, #32
 2003414:	e2833008 	add	r3, r3, #8
 2003418:	e0833000 	add	r3, r3, r0
 200341c:	e1a0000a 	mov	r0, sl
 2003420:	e543b3e8 	strb	fp, [r3, #-1000]	; 0xfffffc18
 2003424:	ebffff11 	bl	2003070 <DebugPrint>
 2003428:	e30a1d84 	movw	r1, #44420	; 0xad84
 200342c:	e28d0020 	add	r0, sp, #32
 2003430:	e3401200 	movt	r1, #512	; 0x200
 2003434:	ebfff738 	bl	200111c <strcmp@plt>
 2003438:	e3500000 	cmp	r0, #0
 200343c:	1a000004 	bne	2003454 <NetDbgRecvTreadFunction+0xb0>
 2003440:	e894000f 	ldm	r4, {r0, r1, r2, r3}
 2003444:	e3a0c001 	mov	ip, #1
 2003448:	e586c080 	str	ip, [r6, #128]	; 0x80
 200344c:	e889000f 	stm	r9, {r0, r1, r2, r3}
 2003450:	eaffffe0 	b	20033d8 <NetDbgRecvTreadFunction+0x34>
 2003454:	e30a1d90 	movw	r1, #44432	; 0xad90
 2003458:	e3a02009 	mov	r2, #9
 200345c:	e3401200 	movt	r1, #512	; 0x200
 2003460:	e28d0020 	add	r0, sp, #32
 2003464:	ebfff747 	bl	2001188 <strncmp@plt>
 2003468:	e3500000 	cmp	r0, #0
 200346c:	e28d0020 	add	r0, sp, #32
 2003470:	1a000001 	bne	200347c <NetDbgRecvTreadFunction+0xd8>
 2003474:	ebfffed7 	bl	2002fd8 <SetDbgLevel>
 2003478:	eaffffd6 	b	20033d8 <NetDbgRecvTreadFunction+0x34>
 200347c:	ebfffedc 	bl	2002ff4 <SetDbgChanel>
 2003480:	eaffffd4 	b	20033d8 <NetDbgRecvTreadFunction+0x34>

02003484 <NetDbgSendTreadFunction>:
 2003484:	e92d47f0 	push	{r4, r5, r6, r7, r8, r9, sl, lr}
 2003488:	e30c4908 	movw	r4, #51464	; 0xc908
 200348c:	e3404201 	movt	r4, #513	; 0x201
 2003490:	e24ddf82 	sub	sp, sp, #520	; 0x208
 2003494:	e2847070 	add	r7, r4, #112	; 0x70
 2003498:	e284500c 	add	r5, r4, #12
 200349c:	e1a00005 	mov	r0, r5
 20034a0:	ebfff7a1 	bl	200132c <pthread_mutex_lock@plt>
 20034a4:	e1a01005 	mov	r1, r5
 20034a8:	e59f00b8 	ldr	r0, [pc, #184]	; 2003568 <NetDbgSendTreadFunction+0xe4>
 20034ac:	ebfff756 	bl	200120c <pthread_cond_wait@plt>
 20034b0:	e1a00005 	mov	r0, r5
 20034b4:	ebfff793 	bl	2001308 <pthread_mutex_unlock@plt>
 20034b8:	e5943080 	ldr	r3, [r4, #128]	; 0x80
 20034bc:	e3530000 	cmp	r3, #0
 20034c0:	0afffff5 	beq	200349c <NetDbgSendTreadFunction+0x18>
 20034c4:	e5948008 	ldr	r8, [r4, #8]
 20034c8:	e5943000 	ldr	r3, [r4]
 20034cc:	e1580003 	cmp	r8, r3
 20034d0:	0afffff1 	beq	200349c <NetDbgSendTreadFunction+0x18>
 20034d4:	e3a06010 	mov	r6, #16
 20034d8:	e3a09000 	mov	r9, #0
 20034dc:	e594a004 	ldr	sl, [r4, #4]
 20034e0:	e1a02009 	mov	r2, r9
 20034e4:	e28dc008 	add	ip, sp, #8
 20034e8:	ea000009 	b	2003514 <NetDbgSendTreadFunction+0x90>
 20034ec:	e2710000 	rsbs	r0, r1, #0
 20034f0:	e7dae003 	ldrb	lr, [sl, r3]
 20034f4:	e7ed0050 	ubfx	r0, r0, #0, #14
 20034f8:	e2822001 	add	r2, r2, #1
 20034fc:	e7ed3051 	ubfx	r3, r1, #0, #14
 2003500:	52603000 	rsbpl	r3, r0, #0
 2003504:	e3520c02 	cmp	r2, #512	; 0x200
 2003508:	e3a09001 	mov	r9, #1
 200350c:	e4cce001 	strb	lr, [ip], #1
 2003510:	0a000012 	beq	2003560 <NetDbgSendTreadFunction+0xdc>
 2003514:	e1580003 	cmp	r8, r3
 2003518:	e2831001 	add	r1, r3, #1
 200351c:	1afffff2 	bne	20034ec <NetDbgSendTreadFunction+0x68>
 2003520:	e3590000 	cmp	r9, #0
 2003524:	15848000 	strne	r8, [r4]
 2003528:	e3a03000 	mov	r3, #0
 200352c:	e5940054 	ldr	r0, [r4, #84]	; 0x54
 2003530:	e58d6004 	str	r6, [sp, #4]
 2003534:	e28d1008 	add	r1, sp, #8
 2003538:	e58d7000 	str	r7, [sp]
 200353c:	ebfff77d 	bl	2001338 <sendto@plt>
 2003540:	e5943080 	ldr	r3, [r4, #128]	; 0x80
 2003544:	e3530000 	cmp	r3, #0
 2003548:	0affffd3 	beq	200349c <NetDbgSendTreadFunction+0x18>
 200354c:	e5948008 	ldr	r8, [r4, #8]
 2003550:	e5943000 	ldr	r3, [r4]
 2003554:	e1580003 	cmp	r8, r3
 2003558:	1affffde 	bne	20034d8 <NetDbgSendTreadFunction+0x54>
 200355c:	eaffffce 	b	200349c <NetDbgSendTreadFunction+0x18>
 2003560:	e5843000 	str	r3, [r4]
 2003564:	eaffffef 	b	2003528 <NetDbgSendTreadFunction+0xa4>
 2003568:	0201c92c 	andeq	ip, r1, #44, 18	; 0xb0000

0200356c <NetPrintInit>:
 200356c:	e30c0234 	movw	r0, #49716	; 0xc234
 2003570:	e3400201 	movt	r0, #513	; 0x201
 2003574:	eafffe75 	b	2002f50 <RegisterDebugOpr>

02003578 <SetColorForPixelInVideoMem>:
 2003578:	e592c018 	ldr	ip, [r2, #24]
 200357c:	e92d4010 	push	{r4, lr}
 2003580:	e0000c90 	mul	r0, r0, ip
 2003584:	e592e01c 	ldr	lr, [r2, #28]
 2003588:	e5924024 	ldr	r4, [r2, #36]	; 0x24
 200358c:	e3500000 	cmp	r0, #0
 2003590:	e2802007 	add	r2, r0, #7
 2003594:	b1a00002 	movlt	r0, r2
 2003598:	e35c0010 	cmp	ip, #16
 200359c:	e1a001c0 	asr	r0, r0, #3
 20035a0:	e021019e 	mla	r1, lr, r1, r0
 20035a4:	0a00000b 	beq	20035d8 <SetColorForPixelInVideoMem+0x60>
 20035a8:	e35c0020 	cmp	ip, #32
 20035ac:	0a000006 	beq	20035cc <SetColorForPixelInVideoMem+0x54>
 20035b0:	e35c0008 	cmp	ip, #8
 20035b4:	0a000001 	beq	20035c0 <SetColorForPixelInVideoMem+0x48>
 20035b8:	e3e00000 	mvn	r0, #0
 20035bc:	e8bd8010 	pop	{r4, pc}
 20035c0:	e7c43001 	strb	r3, [r4, r1]
 20035c4:	e3a00001 	mov	r0, #1
 20035c8:	e8bd8010 	pop	{r4, pc}
 20035cc:	e7843001 	str	r3, [r4, r1]
 20035d0:	e3a00004 	mov	r0, #4
 20035d4:	e8bd8010 	pop	{r4, pc}
 20035d8:	e1a0c9a3 	lsr	ip, r3, #19
 20035dc:	e7e421d3 	ubfx	r2, r3, #3, #5
 20035e0:	e1a032a3 	lsr	r3, r3, #5
 20035e4:	e3a00002 	mov	r0, #2
 20035e8:	e182258c 	orr	r2, r2, ip, lsl #11
 20035ec:	e2033e7e 	and	r3, r3, #2016	; 0x7e0
 20035f0:	e1823003 	orr	r3, r2, r3
 20035f4:	e18430b1 	strh	r3, [r4, r1]
 20035f8:	e8bd8010 	pop	{r4, pc}

020035fc <InvertButton>:
 20035fc:	e92d4070 	push	{r4, r5, r6, lr}
 2003600:	e1a05000 	mov	r5, r0
 2003604:	ebfff852 	bl	2001754 <GetDefaultDispDev>
 2003608:	e5953000 	ldr	r3, [r5]
 200360c:	e5951008 	ldr	r1, [r5, #8]
 2003610:	e595e004 	ldr	lr, [r5, #4]
 2003614:	e0411003 	sub	r1, r1, r3
 2003618:	e590400c 	ldr	r4, [r0, #12]
 200361c:	e590c014 	ldr	ip, [r0, #20]
 2003620:	e0020394 	mul	r2, r4, r3
 2003624:	e5903010 	ldr	r3, [r0, #16]
 2003628:	e0244491 	mla	r4, r1, r4, r4
 200362c:	e3520000 	cmp	r2, #0
 2003630:	e2821007 	add	r1, r2, #7
 2003634:	a1a01002 	movge	r1, r2
 2003638:	e2846007 	add	r6, r4, #7
 200363c:	e1a011c1 	asr	r1, r1, #3
 2003640:	e3540000 	cmp	r4, #0
 2003644:	e595200c 	ldr	r2, [r5, #12]
 2003648:	e0211e93 	mla	r1, r3, lr, r1
 200364c:	b1a04006 	movlt	r4, r6
 2003650:	e15e0002 	cmp	lr, r2
 2003654:	e08cc001 	add	ip, ip, r1
 2003658:	c8bd8070 	popgt	{r4, r5, r6, pc}
 200365c:	e1a041c4 	asr	r4, r4, #3
 2003660:	e2446001 	sub	r6, r4, #1
 2003664:	e3540000 	cmp	r4, #0
 2003668:	c24c3001 	subgt	r3, ip, #1
 200366c:	c08c1006 	addgt	r1, ip, r6
 2003670:	da000006 	ble	2003690 <InvertButton+0x94>
 2003674:	e5f32001 	ldrb	r2, [r3, #1]!
 2003678:	e1510003 	cmp	r1, r3
 200367c:	e1e02002 	mvn	r2, r2
 2003680:	e5c32000 	strb	r2, [r3]
 2003684:	1afffffa 	bne	2003674 <InvertButton+0x78>
 2003688:	e5903010 	ldr	r3, [r0, #16]
 200368c:	e595200c 	ldr	r2, [r5, #12]
 2003690:	e28ee001 	add	lr, lr, #1
 2003694:	e08cc003 	add	ip, ip, r3
 2003698:	e152000e 	cmp	r2, lr
 200369c:	aafffff0 	bge	2003664 <InvertButton+0x68>
 20036a0:	e8bd8070 	pop	{r4, r5, r6, pc}

020036a4 <FlushVideoMemToDev>:
 20036a4:	e5903004 	ldr	r3, [r0, #4]
 20036a8:	e3530000 	cmp	r3, #0
 20036ac:	112fff1e 	bxne	lr
 20036b0:	e92d4010 	push	{r4, lr}
 20036b4:	e1a04000 	mov	r4, r0
 20036b8:	ebfff825 	bl	2001754 <GetDefaultDispDev>
 20036bc:	e5903024 	ldr	r3, [r0, #36]	; 0x24
 20036c0:	e1a00004 	mov	r0, r4
 20036c4:	e8bd4010 	pop	{r4, lr}
 20036c8:	e12fff13 	bx	r3

020036cc <GetPixelDatasForIcon>:
 20036cc:	e92d4070 	push	{r4, r5, r6, lr}
 20036d0:	e24dde12 	sub	sp, sp, #288	; 0x120
 20036d4:	e1a04000 	mov	r4, r0
 20036d8:	e1a06001 	mov	r6, r1
 20036dc:	e58d0000 	str	r0, [sp]
 20036e0:	e3a01080 	mov	r1, #128	; 0x80
 20036e4:	e28d0014 	add	r0, sp, #20
 20036e8:	e30a3da8 	movw	r3, #44456	; 0xada8
 20036ec:	e30a2dbc 	movw	r2, #44476	; 0xadbc
 20036f0:	e3403200 	movt	r3, #512	; 0x200
 20036f4:	e3402200 	movt	r2, #512	; 0x200
 20036f8:	ebfff681 	bl	2001104 <snprintf@plt>
 20036fc:	e28d0014 	add	r0, sp, #20
 2003700:	e3a03000 	mov	r3, #0
 2003704:	e5cd3093 	strb	r3, [sp, #147]	; 0x93
 2003708:	eb001201 	bl	2007f14 <MapFile>
 200370c:	e3500000 	cmp	r0, #0
 2003710:	1a000030 	bne	20037d8 <GetPixelDatasForIcon+0x10c>
 2003714:	e30b10ac 	movw	r1, #45228	; 0xb0ac
 2003718:	e1a00004 	mov	r0, r4
 200371c:	e3401200 	movt	r1, #512	; 0x200
 2003720:	ebfff6b3 	bl	20011f4 <strstr@plt>
 2003724:	e3500000 	cmp	r0, #0
 2003728:	130b00ac 	movwne	r0, #45228	; 0xb0ac
 200372c:	030a0dd8 	movweq	r0, #44504	; 0xadd8
 2003730:	13400200 	movtne	r0, #512	; 0x200
 2003734:	03400200 	movteq	r0, #512	; 0x200
 2003738:	eb00021c 	bl	2003fb0 <Parser>
 200373c:	e5903004 	ldr	r3, [r0, #4]
 2003740:	e1a05000 	mov	r5, r0
 2003744:	e28d0014 	add	r0, sp, #20
 2003748:	e12fff33 	blx	r3
 200374c:	e3500000 	cmp	r0, #0
 2003750:	0a000010 	beq	2003798 <GetPixelDatasForIcon+0xcc>
 2003754:	e28d2010 	add	r2, sp, #16
 2003758:	e28d100c 	add	r1, sp, #12
 200375c:	e28d0008 	add	r0, sp, #8
 2003760:	ebfff7ff 	bl	2001764 <GetDispResolution>
 2003764:	e59d2010 	ldr	r2, [sp, #16]
 2003768:	e5953008 	ldr	r3, [r5, #8]
 200376c:	e1a01006 	mov	r1, r6
 2003770:	e28d0014 	add	r0, sp, #20
 2003774:	e5862008 	str	r2, [r6, #8]
 2003778:	e12fff33 	blx	r3
 200377c:	e2505000 	subs	r5, r0, #0
 2003780:	1a00000c 	bne	20037b8 <GetPixelDatasForIcon+0xec>
 2003784:	e28d0014 	add	r0, sp, #20
 2003788:	eb00120e 	bl	2007fc8 <UnMapFile>
 200378c:	e1a00005 	mov	r0, r5
 2003790:	e28dde12 	add	sp, sp, #288	; 0x120
 2003794:	e8bd8070 	pop	{r4, r5, r6, pc}
 2003798:	e1a01004 	mov	r1, r4
 200379c:	e30a0ddc 	movw	r0, #44508	; 0xaddc
 20037a0:	e3400200 	movt	r0, #512	; 0x200
 20037a4:	e3e05000 	mvn	r5, #0
 20037a8:	ebfffe30 	bl	2003070 <DebugPrint>
 20037ac:	e28d0014 	add	r0, sp, #20
 20037b0:	eb001204 	bl	2007fc8 <UnMapFile>
 20037b4:	eafffff4 	b	200378c <GetPixelDatasForIcon+0xc0>
 20037b8:	e1a01004 	mov	r1, r4
 20037bc:	e30a0dfc 	movw	r0, #44540	; 0xadfc
 20037c0:	e3400200 	movt	r0, #512	; 0x200
 20037c4:	e3e05000 	mvn	r5, #0
 20037c8:	ebfffe28 	bl	2003070 <DebugPrint>
 20037cc:	e28d0014 	add	r0, sp, #20
 20037d0:	eb0011fc 	bl	2007fc8 <UnMapFile>
 20037d4:	eaffffec 	b	200378c <GetPixelDatasForIcon+0xc0>
 20037d8:	e1a01004 	mov	r1, r4
 20037dc:	e30a0dc4 	movw	r0, #44484	; 0xadc4
 20037e0:	e3400200 	movt	r0, #512	; 0x200
 20037e4:	e3e05000 	mvn	r5, #0
 20037e8:	ebfffe20 	bl	2003070 <DebugPrint>
 20037ec:	eaffffe6 	b	200378c <GetPixelDatasForIcon+0xc0>

020037f0 <FreePixelDatasForIcon>:
 20037f0:	e92d4010 	push	{r4, lr}
 20037f4:	e1a04000 	mov	r4, r0
 20037f8:	e30b00ac 	movw	r0, #45228	; 0xb0ac
 20037fc:	e3400200 	movt	r0, #512	; 0x200
 2003800:	eb0001ea 	bl	2003fb0 <Parser>
 2003804:	e590300c 	ldr	r3, [r0, #12]
 2003808:	e1a00004 	mov	r0, r4
 200380c:	e8bd4010 	pop	{r4, lr}
 2003810:	e12fff13 	bx	r3

02003814 <isPictureFileSupported>:
 2003814:	e92d4070 	push	{r4, r5, r6, lr}
 2003818:	e24dde11 	sub	sp, sp, #272	; 0x110
 200381c:	e1a01000 	mov	r1, r0
 2003820:	e3a02c01 	mov	r2, #256	; 0x100
 2003824:	e1a06000 	mov	r6, r0
 2003828:	e28d0004 	add	r0, sp, #4
 200382c:	ebfff68e 	bl	200126c <strncpy@plt>
 2003830:	e28d0004 	add	r0, sp, #4
 2003834:	e3a05000 	mov	r5, #0
 2003838:	e5cd5103 	strb	r5, [sp, #259]	; 0x103
 200383c:	eb001163 	bl	2007dd0 <EatMoreSplash>
 2003840:	e28d0004 	add	r0, sp, #4
 2003844:	eb0011b2 	bl	2007f14 <MapFile>
 2003848:	e2504000 	subs	r4, r0, #0
 200384c:	1a000008 	bne	2003874 <isPictureFileSupported+0x60>
 2003850:	e28d0004 	add	r0, sp, #4
 2003854:	eb0001e7 	bl	2003ff8 <GetParser>
 2003858:	e3500000 	cmp	r0, #0
 200385c:	e28d0004 	add	r0, sp, #4
 2003860:	13a04001 	movne	r4, #1
 2003864:	eb0011d7 	bl	2007fc8 <UnMapFile>
 2003868:	e1a00004 	mov	r0, r4
 200386c:	e28dde11 	add	sp, sp, #272	; 0x110
 2003870:	e8bd8070 	pop	{r4, r5, r6, pc}
 2003874:	e1a01006 	mov	r1, r6
 2003878:	e30a0dc4 	movw	r0, #44484	; 0xadc4
 200387c:	e3400200 	movt	r0, #512	; 0x200
 2003880:	e1a04005 	mov	r4, r5
 2003884:	ebfffdf9 	bl	2003070 <DebugPrint>
 2003888:	e1a00004 	mov	r0, r4
 200388c:	e28dde11 	add	sp, sp, #272	; 0x110
 2003890:	e8bd8070 	pop	{r4, r5, r6, pc}

02003894 <GetPixelDatasFrmFile>:
 2003894:	e92d4070 	push	{r4, r5, r6, lr}
 2003898:	e24ddf46 	sub	sp, sp, #280	; 0x118
 200389c:	e3a02c01 	mov	r2, #256	; 0x100
 20038a0:	e1a05000 	mov	r5, r0
 20038a4:	e1a04001 	mov	r4, r1
 20038a8:	e1a01000 	mov	r1, r0
 20038ac:	e28d000c 	add	r0, sp, #12
 20038b0:	ebfff66d 	bl	200126c <strncpy@plt>
 20038b4:	e28d000c 	add	r0, sp, #12
 20038b8:	e3a03000 	mov	r3, #0
 20038bc:	e5cd310b 	strb	r3, [sp, #267]	; 0x10b
 20038c0:	eb001142 	bl	2007dd0 <EatMoreSplash>
 20038c4:	e28d000c 	add	r0, sp, #12
 20038c8:	eb001191 	bl	2007f14 <MapFile>
 20038cc:	e3500000 	cmp	r0, #0
 20038d0:	1a000014 	bne	2003928 <GetPixelDatasFrmFile+0x94>
 20038d4:	e28d000c 	add	r0, sp, #12
 20038d8:	eb0001c6 	bl	2003ff8 <GetParser>
 20038dc:	e2506000 	subs	r6, r0, #0
 20038e0:	0a00001e 	beq	2003960 <GetPixelDatasFrmFile+0xcc>
 20038e4:	e28d2008 	add	r2, sp, #8
 20038e8:	e28d1004 	add	r1, sp, #4
 20038ec:	e1a0000d 	mov	r0, sp
 20038f0:	ebfff79b 	bl	2001764 <GetDispResolution>
 20038f4:	e59d2008 	ldr	r2, [sp, #8]
 20038f8:	e5963008 	ldr	r3, [r6, #8]
 20038fc:	e1a01004 	mov	r1, r4
 2003900:	e28d000c 	add	r0, sp, #12
 2003904:	e5842008 	str	r2, [r4, #8]
 2003908:	e12fff33 	blx	r3
 200390c:	e2504000 	subs	r4, r0, #0
 2003910:	1a00000a 	bne	2003940 <GetPixelDatasFrmFile+0xac>
 2003914:	e28d000c 	add	r0, sp, #12
 2003918:	eb0011aa 	bl	2007fc8 <UnMapFile>
 200391c:	e1a00004 	mov	r0, r4
 2003920:	e28ddf46 	add	sp, sp, #280	; 0x118
 2003924:	e8bd8070 	pop	{r4, r5, r6, pc}
 2003928:	e1a01005 	mov	r1, r5
 200392c:	e30a0dc4 	movw	r0, #44484	; 0xadc4
 2003930:	e3400200 	movt	r0, #512	; 0x200
 2003934:	e3e04000 	mvn	r4, #0
 2003938:	ebfffdcc 	bl	2003070 <DebugPrint>
 200393c:	eafffff6 	b	200391c <GetPixelDatasFrmFile+0x88>
 2003940:	e1a01005 	mov	r1, r5
 2003944:	e30a0dfc 	movw	r0, #44540	; 0xadfc
 2003948:	e3400200 	movt	r0, #512	; 0x200
 200394c:	e3e04000 	mvn	r4, #0
 2003950:	ebfffdc6 	bl	2003070 <DebugPrint>
 2003954:	e28d000c 	add	r0, sp, #12
 2003958:	eb00119a 	bl	2007fc8 <UnMapFile>
 200395c:	eaffffee 	b	200391c <GetPixelDatasFrmFile+0x88>
 2003960:	e28d000c 	add	r0, sp, #12
 2003964:	e3e04000 	mvn	r4, #0
 2003968:	eb001196 	bl	2007fc8 <UnMapFile>
 200396c:	eaffffea 	b	200391c <GetPixelDatasFrmFile+0x88>

02003970 <FreePixelDatasFrmFile>:
 2003970:	e5900014 	ldr	r0, [r0, #20]
 2003974:	eafff672 	b	2001344 <free@plt>

02003978 <ClearRectangleInVideoMem>:
 2003978:	e1510003 	cmp	r1, r3
 200397c:	e92d4ff8 	push	{r3, r4, r5, r6, r7, r8, r9, sl, fp, lr}
 2003980:	e1cd62d8 	ldrd	r6, [sp, #40]	; 0x28
 2003984:	c8bd8ff8 	popgt	{r3, r4, r5, r6, r7, r8, r9, sl, fp, pc}
 2003988:	e283a001 	add	sl, r3, #1
 200398c:	e2828001 	add	r8, r2, #1
 2003990:	e1a05001 	mov	r5, r1
 2003994:	e1a09000 	mov	r9, r0
 2003998:	e1a0b002 	mov	fp, r2
 200399c:	e159000b 	cmp	r9, fp
 20039a0:	d1a04009 	movle	r4, r9
 20039a4:	ca000007 	bgt	20039c8 <ClearRectangleInVideoMem+0x50>
 20039a8:	e1a00004 	mov	r0, r4
 20039ac:	e1a03007 	mov	r3, r7
 20039b0:	e1a02006 	mov	r2, r6
 20039b4:	e1a01005 	mov	r1, r5
 20039b8:	e2844001 	add	r4, r4, #1
 20039bc:	ebfffeed 	bl	2003578 <SetColorForPixelInVideoMem>
 20039c0:	e1580004 	cmp	r8, r4
 20039c4:	1afffff7 	bne	20039a8 <ClearRectangleInVideoMem+0x30>
 20039c8:	e2855001 	add	r5, r5, #1
 20039cc:	e15a0005 	cmp	sl, r5
 20039d0:	1afffff1 	bne	200399c <ClearRectangleInVideoMem+0x24>
 20039d4:	e8bd8ff8 	pop	{r3, r4, r5, r6, r7, r8, r9, sl, fp, pc}

020039d8 <MergerStringToCenterOfRectangleInVideoMem>:
 20039d8:	e92d4ff0 	push	{r4, r5, r6, r7, r8, r9, sl, fp, lr}
 20039dc:	e24dd05c 	sub	sp, sp, #92	; 0x5c
 20039e0:	e1a0b000 	mov	fp, r0
 20039e4:	e1a05001 	mov	r5, r1
 20039e8:	e59d9080 	ldr	r9, [sp, #128]	; 0x80
 20039ec:	e1a07002 	mov	r7, r2
 20039f0:	e58d200c 	str	r2, [sp, #12]
 20039f4:	e1a04003 	mov	r4, r3
 20039f8:	e58d3010 	str	r3, [sp, #16]
 20039fc:	e3a03000 	mov	r3, #0
 2003a00:	e1a00009 	mov	r0, r9
 2003a04:	e58d1008 	str	r1, [sp, #8]
 2003a08:	e58d3044 	str	r3, [sp, #68]	; 0x44
 2003a0c:	e58d3048 	str	r3, [sp, #72]	; 0x48
 2003a10:	ebfff669 	bl	20013bc <strlen@plt>
 2003a14:	e1550004 	cmp	r5, r4
 2003a18:	e59da084 	ldr	sl, [sp, #132]	; 0x84
 2003a1c:	e0892000 	add	r2, r9, r0
 2003a20:	e58d2000 	str	r2, [sp]
 2003a24:	ca000015 	bgt	2003a80 <MergerStringToCenterOfRectangleInVideoMem+0xa8>
 2003a28:	e1a03007 	mov	r3, r7
 2003a2c:	e30d6bb5 	movw	r6, #56245	; 0xdbb5
 2003a30:	e2848001 	add	r8, r4, #1
 2003a34:	e34060e7 	movt	r6, #231	; 0xe7
 2003a38:	e2877001 	add	r7, r7, #1
 2003a3c:	e58d9080 	str	r9, [sp, #128]	; 0x80
 2003a40:	e1a09003 	mov	r9, r3
 2003a44:	e15b0009 	cmp	fp, r9
 2003a48:	d1a0400b 	movle	r4, fp
 2003a4c:	ca000007 	bgt	2003a70 <MergerStringToCenterOfRectangleInVideoMem+0x98>
 2003a50:	e1a00004 	mov	r0, r4
 2003a54:	e1a03006 	mov	r3, r6
 2003a58:	e1a0200a 	mov	r2, sl
 2003a5c:	e1a01005 	mov	r1, r5
 2003a60:	e2844001 	add	r4, r4, #1
 2003a64:	ebfffec3 	bl	2003578 <SetColorForPixelInVideoMem>
 2003a68:	e1540007 	cmp	r4, r7
 2003a6c:	1afffff7 	bne	2003a50 <MergerStringToCenterOfRectangleInVideoMem+0x78>
 2003a70:	e2855001 	add	r5, r5, #1
 2003a74:	e1550008 	cmp	r5, r8
 2003a78:	1afffff1 	bne	2003a44 <MergerStringToCenterOfRectangleInVideoMem+0x6c>
 2003a7c:	e59d9080 	ldr	r9, [sp, #128]	; 0x80
 2003a80:	e3e08000 	mvn	r8, #0
 2003a84:	e3a06c7d 	mov	r6, #32000	; 0x7d00
 2003a88:	e30a3e1c 	movw	r3, #44572	; 0xae1c
 2003a8c:	e3403200 	movt	r3, #512	; 0x200
 2003a90:	e58d3004 	str	r3, [sp, #4]
 2003a94:	e3a03000 	mov	r3, #0
 2003a98:	e1a04009 	mov	r4, r9
 2003a9c:	e58db014 	str	fp, [sp, #20]
 2003aa0:	e58d9080 	str	r9, [sp, #128]	; 0x80
 2003aa4:	e1a05008 	mov	r5, r8
 2003aa8:	e1a07006 	mov	r7, r6
 2003aac:	e1a0b003 	mov	fp, r3
 2003ab0:	e59d9000 	ldr	r9, [sp]
 2003ab4:	ea00000d 	b	2003af0 <MergerStringToCenterOfRectangleInVideoMem+0x118>
 2003ab8:	e59d102c 	ldr	r1, [sp, #44]	; 0x2c
 2003abc:	e59d3034 	ldr	r3, [sp, #52]	; 0x34
 2003ac0:	e1570001 	cmp	r7, r1
 2003ac4:	e59d2030 	ldr	r2, [sp, #48]	; 0x30
 2003ac8:	a1a07001 	movge	r7, r1
 2003acc:	e1550003 	cmp	r5, r3
 2003ad0:	b1a05003 	movlt	r5, r3
 2003ad4:	e1560002 	cmp	r6, r2
 2003ad8:	a1a06002 	movge	r6, r2
 2003adc:	e1530008 	cmp	r3, r8
 2003ae0:	e1cd24dc 	ldrd	r2, [sp, #76]	; 0x4c
 2003ae4:	c59d8038 	ldrgt	r8, [sp, #56]	; 0x38
 2003ae8:	e1cd24f4 	strd	r2, [sp, #68]	; 0x44
 2003aec:	e3a0b001 	mov	fp, #1
 2003af0:	e1a01009 	mov	r1, r9
 2003af4:	e1a00004 	mov	r0, r4
 2003af8:	e28d2028 	add	r2, sp, #40	; 0x28
 2003afc:	ebfff9ae 	bl	20021bc <GetCodeFrmBuf>
 2003b00:	e28d102c 	add	r1, sp, #44	; 0x2c
 2003b04:	e3500000 	cmp	r0, #0
 2003b08:	e0844000 	add	r4, r4, r0
 2003b0c:	0a000006 	beq	2003b2c <MergerStringToCenterOfRectangleInVideoMem+0x154>
 2003b10:	e59d0028 	ldr	r0, [sp, #40]	; 0x28
 2003b14:	ebfffb21 	bl	20027a0 <GetFontBitmap>
 2003b18:	e3500000 	cmp	r0, #0
 2003b1c:	0affffe5 	beq	2003ab8 <MergerStringToCenterOfRectangleInVideoMem+0xe0>
 2003b20:	e59d0004 	ldr	r0, [sp, #4]
 2003b24:	ebfffd51 	bl	2003070 <DebugPrint>
 2003b28:	eaffffef 	b	2003aec <MergerStringToCenterOfRectangleInVideoMem+0x114>
 2003b2c:	e1a0300b 	mov	r3, fp
 2003b30:	e3530000 	cmp	r3, #0
 2003b34:	e58db004 	str	fp, [sp, #4]
 2003b38:	e58d0020 	str	r0, [sp, #32]
 2003b3c:	e59db014 	ldr	fp, [sp, #20]
 2003b40:	e59d9080 	ldr	r9, [sp, #128]	; 0x80
 2003b44:	0a0000e7 	beq	2003ee8 <MergerStringToCenterOfRectangleInVideoMem+0x510>
 2003b48:	e59d300c 	ldr	r3, [sp, #12]
 2003b4c:	e0455007 	sub	r5, r5, r7
 2003b50:	e59d2010 	ldr	r2, [sp, #16]
 2003b54:	e0488006 	sub	r8, r8, r6
 2003b58:	e043300b 	sub	r3, r3, fp
 2003b5c:	e59d1008 	ldr	r1, [sp, #8]
 2003b60:	e1530005 	cmp	r3, r5
 2003b64:	e0422001 	sub	r2, r2, r1
 2003b68:	b1a05003 	movlt	r5, r3
 2003b6c:	e1520008 	cmp	r2, r8
 2003b70:	ba0000df 	blt	2003ef4 <MergerStringToCenterOfRectangleInVideoMem+0x51c>
 2003b74:	e0435005 	sub	r5, r3, r5
 2003b78:	e0428008 	sub	r8, r2, r8
 2003b7c:	e30d3bb5 	movw	r3, #56245	; 0xdbb5
 2003b80:	e59d1008 	ldr	r1, [sp, #8]
 2003b84:	e0855fa5 	add	r5, r5, r5, lsr #31
 2003b88:	e34030e7 	movt	r3, #231	; 0xe7
 2003b8c:	e58db014 	str	fp, [sp, #20]
 2003b90:	e08180c8 	add	r8, r1, r8, asr #1
 2003b94:	e58d3018 	str	r3, [sp, #24]
 2003b98:	e08b30c5 	add	r3, fp, r5, asr #1
 2003b9c:	e59d4020 	ldr	r4, [sp, #32]
 2003ba0:	e3042438 	movw	r2, #17464	; 0x4438
 2003ba4:	e59db024 	ldr	fp, [sp, #36]	; 0x24
 2003ba8:	e0486006 	sub	r6, r8, r6
 2003bac:	e0437007 	sub	r7, r3, r7
 2003bb0:	e3402051 	movt	r2, #81	; 0x51
 2003bb4:	e58d6048 	str	r6, [sp, #72]	; 0x48
 2003bb8:	e58d201c 	str	r2, [sp, #28]
 2003bbc:	e58d7044 	str	r7, [sp, #68]	; 0x44
 2003bc0:	e28d2028 	add	r2, sp, #40	; 0x28
 2003bc4:	e59d1000 	ldr	r1, [sp]
 2003bc8:	e1a00009 	mov	r0, r9
 2003bcc:	ebfff97a 	bl	20021bc <GetCodeFrmBuf>
 2003bd0:	e2503000 	subs	r3, r0, #0
 2003bd4:	0a0000b2 	beq	2003ea4 <MergerStringToCenterOfRectangleInVideoMem+0x4cc>
 2003bd8:	e28d102c 	add	r1, sp, #44	; 0x2c
 2003bdc:	e59d0028 	ldr	r0, [sp, #40]	; 0x28
 2003be0:	e0899003 	add	r9, r9, r3
 2003be4:	ebfffaed 	bl	20027a0 <GetFontBitmap>
 2003be8:	e3500000 	cmp	r0, #0
 2003bec:	1a000050 	bne	2003d34 <MergerStringToCenterOfRectangleInVideoMem+0x35c>
 2003bf0:	e59dc02c 	ldr	ip, [sp, #44]	; 0x2c
 2003bf4:	e59d3014 	ldr	r3, [sp, #20]
 2003bf8:	e153000c 	cmp	r3, ip
 2003bfc:	ca000031 	bgt	2003cc8 <MergerStringToCenterOfRectangleInVideoMem+0x2f0>
 2003c00:	e59d4034 	ldr	r4, [sp, #52]	; 0x34
 2003c04:	e59d300c 	ldr	r3, [sp, #12]
 2003c08:	e1530004 	cmp	r3, r4
 2003c0c:	ba00002d 	blt	2003cc8 <MergerStringToCenterOfRectangleInVideoMem+0x2f0>
 2003c10:	e59de030 	ldr	lr, [sp, #48]	; 0x30
 2003c14:	e59d3008 	ldr	r3, [sp, #8]
 2003c18:	e153000e 	cmp	r3, lr
 2003c1c:	ca000029 	bgt	2003cc8 <MergerStringToCenterOfRectangleInVideoMem+0x2f0>
 2003c20:	e59d3038 	ldr	r3, [sp, #56]	; 0x38
 2003c24:	e59d2010 	ldr	r2, [sp, #16]
 2003c28:	e1520003 	cmp	r2, r3
 2003c2c:	ba000025 	blt	2003cc8 <MergerStringToCenterOfRectangleInVideoMem+0x2f0>
 2003c30:	e59d103c 	ldr	r1, [sp, #60]	; 0x3c
 2003c34:	e3510001 	cmp	r1, #1
 2003c38:	0a000041 	beq	2003d44 <MergerStringToCenterOfRectangleInVideoMem+0x36c>
 2003c3c:	e3510008 	cmp	r1, #8
 2003c40:	1a0000a4 	bne	2003ed8 <MergerStringToCenterOfRectangleInVideoMem+0x500>
 2003c44:	e15e0003 	cmp	lr, r3
 2003c48:	aa000035 	bge	2003d24 <MergerStringToCenterOfRectangleInVideoMem+0x34c>
 2003c4c:	e30e66d6 	movw	r6, #59094	; 0xe6d6
 2003c50:	e34f6fff 	movt	r6, #65535	; 0xffff
 2003c54:	e3058227 	movw	r8, #21031	; 0x5227
 2003c58:	e154000c 	cmp	r4, ip
 2003c5c:	da00002a 	ble	2003d0c <MergerStringToCenterOfRectangleInVideoMem+0x334>
 2003c60:	e3a07038 	mov	r7, #56	; 0x38
 2003c64:	e59a2018 	ldr	r2, [sl, #24]
 2003c68:	e59d3054 	ldr	r3, [sp, #84]	; 0x54
 2003c6c:	e0010c92 	mul	r1, r2, ip
 2003c70:	e7d35000 	ldrb	r5, [r3, r0]
 2003c74:	e3510000 	cmp	r1, #0
 2003c78:	e2813007 	add	r3, r1, #7
 2003c7c:	b1a01003 	movlt	r1, r3
 2003c80:	e59a301c 	ldr	r3, [sl, #28]
 2003c84:	e3550000 	cmp	r5, #0
 2003c88:	e1a011c1 	asr	r1, r1, #3
 2003c8c:	e59a5024 	ldr	r5, [sl, #36]	; 0x24
 2003c90:	e0211e93 	mla	r1, r3, lr, r1
 2003c94:	0a00000e 	beq	2003cd4 <MergerStringToCenterOfRectangleInVideoMem+0x2fc>
 2003c98:	e3520010 	cmp	r2, #16
 2003c9c:	0a000071 	beq	2003e68 <MergerStringToCenterOfRectangleInVideoMem+0x490>
 2003ca0:	e3520020 	cmp	r2, #32
 2003ca4:	0a00006b 	beq	2003e58 <MergerStringToCenterOfRectangleInVideoMem+0x480>
 2003ca8:	e3520008 	cmp	r2, #8
 2003cac:	0a000066 	beq	2003e4c <MergerStringToCenterOfRectangleInVideoMem+0x474>
 2003cb0:	e30a0e80 	movw	r0, #44672	; 0xae80
 2003cb4:	e59d1028 	ldr	r1, [sp, #40]	; 0x28
 2003cb8:	e3400200 	movt	r0, #512	; 0x200
 2003cbc:	e3e03000 	mvn	r3, #0
 2003cc0:	e58d3020 	str	r3, [sp, #32]
 2003cc4:	ebfffce9 	bl	2003070 <DebugPrint>
 2003cc8:	e59d0020 	ldr	r0, [sp, #32]
 2003ccc:	e28dd05c 	add	sp, sp, #92	; 0x5c
 2003cd0:	e8bd8ff0 	pop	{r4, r5, r6, r7, r8, r9, sl, fp, pc}
 2003cd4:	e3520010 	cmp	r2, #16
 2003cd8:	0a000055 	beq	2003e34 <MergerStringToCenterOfRectangleInVideoMem+0x45c>
 2003cdc:	e3520020 	cmp	r2, #32
 2003ce0:	0a000055 	beq	2003e3c <MergerStringToCenterOfRectangleInVideoMem+0x464>
 2003ce4:	e3520008 	cmp	r2, #8
 2003ce8:	1afffff0 	bne	2003cb0 <MergerStringToCenterOfRectangleInVideoMem+0x2d8>
 2003cec:	e3e0304a 	mvn	r3, #74	; 0x4a
 2003cf0:	e7c53001 	strb	r3, [r5, r1]
 2003cf4:	e59d4034 	ldr	r4, [sp, #52]	; 0x34
 2003cf8:	e28cc001 	add	ip, ip, #1
 2003cfc:	e2800001 	add	r0, r0, #1
 2003d00:	e15c0004 	cmp	ip, r4
 2003d04:	baffffd6 	blt	2003c64 <MergerStringToCenterOfRectangleInVideoMem+0x28c>
 2003d08:	e59d3038 	ldr	r3, [sp, #56]	; 0x38
 2003d0c:	e28ee001 	add	lr, lr, #1
 2003d10:	e15e0003 	cmp	lr, r3
 2003d14:	aa000002 	bge	2003d24 <MergerStringToCenterOfRectangleInVideoMem+0x34c>
 2003d18:	e59dc02c 	ldr	ip, [sp, #44]	; 0x2c
 2003d1c:	eaffffcd 	b	2003c58 <MergerStringToCenterOfRectangleInVideoMem+0x280>
 2003d20:	e59d9080 	ldr	r9, [sp, #128]	; 0x80
 2003d24:	e1cd24dc 	ldrd	r2, [sp, #76]	; 0x4c
 2003d28:	e1cd24f4 	strd	r2, [sp, #68]	; 0x44
 2003d2c:	e59d4004 	ldr	r4, [sp, #4]
 2003d30:	eaffffa2 	b	2003bc0 <MergerStringToCenterOfRectangleInVideoMem+0x1e8>
 2003d34:	e30a0eac 	movw	r0, #44716	; 0xaeac
 2003d38:	e3400200 	movt	r0, #512	; 0x200
 2003d3c:	ebfffccb 	bl	2003070 <DebugPrint>
 2003d40:	eafffff9 	b	2003d2c <MergerStringToCenterOfRectangleInVideoMem+0x354>
 2003d44:	e15e0003 	cmp	lr, r3
 2003d48:	aafffff5 	bge	2003d24 <MergerStringToCenterOfRectangleInVideoMem+0x34c>
 2003d4c:	e30e86d6 	movw	r8, #59094	; 0xe6d6
 2003d50:	e34f8fff 	movt	r8, #65535	; 0xffff
 2003d54:	e1a0600e 	mov	r6, lr
 2003d58:	e58d9080 	str	r9, [sp, #128]	; 0x80
 2003d5c:	e59d2040 	ldr	r2, [sp, #64]	; 0x40
 2003d60:	e04e6006 	sub	r6, lr, r6
 2003d64:	e154000c 	cmp	r4, ip
 2003d68:	e0060692 	mul	r6, r2, r6
 2003d6c:	da000020 	ble	2003df4 <MergerStringToCenterOfRectangleInVideoMem+0x41c>
 2003d70:	e3a01007 	mov	r1, #7
 2003d74:	e3a09038 	mov	r9, #56	; 0x38
 2003d78:	e3510007 	cmp	r1, #7
 2003d7c:	e59a2018 	ldr	r2, [sl, #24]
 2003d80:	e59a7024 	ldr	r7, [sl, #36]	; 0x24
 2003d84:	059d3054 	ldreq	r3, [sp, #84]	; 0x54
 2003d88:	e0050c92 	mul	r5, r2, ip
 2003d8c:	07d3b006 	ldrbeq	fp, [r3, r6]
 2003d90:	02866001 	addeq	r6, r6, #1
 2003d94:	e3550000 	cmp	r5, #0
 2003d98:	e2853007 	add	r3, r5, #7
 2003d9c:	e1a0015b 	asr	r0, fp, r1
 2003da0:	a1a03005 	movge	r3, r5
 2003da4:	e3100001 	tst	r0, #1
 2003da8:	e59a001c 	ldr	r0, [sl, #28]
 2003dac:	e1a031c3 	asr	r3, r3, #3
 2003db0:	e0233e90 	mla	r3, r0, lr, r3
 2003db4:	0a000014 	beq	2003e0c <MergerStringToCenterOfRectangleInVideoMem+0x434>
 2003db8:	e3520010 	cmp	r2, #16
 2003dbc:	0a000035 	beq	2003e98 <MergerStringToCenterOfRectangleInVideoMem+0x4c0>
 2003dc0:	e3520020 	cmp	r2, #32
 2003dc4:	0a00002f 	beq	2003e88 <MergerStringToCenterOfRectangleInVideoMem+0x4b0>
 2003dc8:	e3520008 	cmp	r2, #8
 2003dcc:	1affffb7 	bne	2003cb0 <MergerStringToCenterOfRectangleInVideoMem+0x2d8>
 2003dd0:	e7c79003 	strb	r9, [r7, r3]
 2003dd4:	e59d4034 	ldr	r4, [sp, #52]	; 0x34
 2003dd8:	e2411001 	sub	r1, r1, #1
 2003ddc:	e28cc001 	add	ip, ip, #1
 2003de0:	e3710001 	cmn	r1, #1
 2003de4:	03a01007 	moveq	r1, #7
 2003de8:	e15c0004 	cmp	ip, r4
 2003dec:	baffffe1 	blt	2003d78 <MergerStringToCenterOfRectangleInVideoMem+0x3a0>
 2003df0:	e59d3038 	ldr	r3, [sp, #56]	; 0x38
 2003df4:	e28ee001 	add	lr, lr, #1
 2003df8:	e15e0003 	cmp	lr, r3
 2003dfc:	aaffffc7 	bge	2003d20 <MergerStringToCenterOfRectangleInVideoMem+0x348>
 2003e00:	e59d6030 	ldr	r6, [sp, #48]	; 0x30
 2003e04:	e59dc02c 	ldr	ip, [sp, #44]	; 0x2c
 2003e08:	eaffffd3 	b	2003d5c <MergerStringToCenterOfRectangleInVideoMem+0x384>
 2003e0c:	e3520010 	cmp	r2, #16
 2003e10:	0a00001a 	beq	2003e80 <MergerStringToCenterOfRectangleInVideoMem+0x4a8>
 2003e14:	e3520020 	cmp	r2, #32
 2003e18:	0a000014 	beq	2003e70 <MergerStringToCenterOfRectangleInVideoMem+0x498>
 2003e1c:	e3520008 	cmp	r2, #8
 2003e20:	1affffa2 	bne	2003cb0 <MergerStringToCenterOfRectangleInVideoMem+0x2d8>
 2003e24:	e3e0204a 	mvn	r2, #74	; 0x4a
 2003e28:	e7c72003 	strb	r2, [r7, r3]
 2003e2c:	e59d4034 	ldr	r4, [sp, #52]	; 0x34
 2003e30:	eaffffe8 	b	2003dd8 <MergerStringToCenterOfRectangleInVideoMem+0x400>
 2003e34:	e18560b1 	strh	r6, [r5, r1]
 2003e38:	eaffffae 	b	2003cf8 <MergerStringToCenterOfRectangleInVideoMem+0x320>
 2003e3c:	e59d3018 	ldr	r3, [sp, #24]
 2003e40:	e7853001 	str	r3, [r5, r1]
 2003e44:	e59d4034 	ldr	r4, [sp, #52]	; 0x34
 2003e48:	eaffffaa 	b	2003cf8 <MergerStringToCenterOfRectangleInVideoMem+0x320>
 2003e4c:	e7c57001 	strb	r7, [r5, r1]
 2003e50:	e59d4034 	ldr	r4, [sp, #52]	; 0x34
 2003e54:	eaffffa7 	b	2003cf8 <MergerStringToCenterOfRectangleInVideoMem+0x320>
 2003e58:	e59d301c 	ldr	r3, [sp, #28]
 2003e5c:	e7853001 	str	r3, [r5, r1]
 2003e60:	e59d4034 	ldr	r4, [sp, #52]	; 0x34
 2003e64:	eaffffa3 	b	2003cf8 <MergerStringToCenterOfRectangleInVideoMem+0x320>
 2003e68:	e18580b1 	strh	r8, [r5, r1]
 2003e6c:	eaffffa1 	b	2003cf8 <MergerStringToCenterOfRectangleInVideoMem+0x320>
 2003e70:	e59d2018 	ldr	r2, [sp, #24]
 2003e74:	e7872003 	str	r2, [r7, r3]
 2003e78:	e59d4034 	ldr	r4, [sp, #52]	; 0x34
 2003e7c:	eaffffd5 	b	2003dd8 <MergerStringToCenterOfRectangleInVideoMem+0x400>
 2003e80:	e18780b3 	strh	r8, [r7, r3]
 2003e84:	eaffffd3 	b	2003dd8 <MergerStringToCenterOfRectangleInVideoMem+0x400>
 2003e88:	e59d201c 	ldr	r2, [sp, #28]
 2003e8c:	e7872003 	str	r2, [r7, r3]
 2003e90:	e59d4034 	ldr	r4, [sp, #52]	; 0x34
 2003e94:	eaffffcf 	b	2003dd8 <MergerStringToCenterOfRectangleInVideoMem+0x400>
 2003e98:	e3052227 	movw	r2, #21031	; 0x5227
 2003e9c:	e18720b3 	strh	r2, [r7, r3]
 2003ea0:	eaffffcc 	b	2003dd8 <MergerStringToCenterOfRectangleInVideoMem+0x400>
 2003ea4:	e3540000 	cmp	r4, #0
 2003ea8:	1affff86 	bne	2003cc8 <MergerStringToCenterOfRectangleInVideoMem+0x2f0>
 2003eac:	e30a2a14 	movw	r2, #43540	; 0xaa14
 2003eb0:	e30a1e48 	movw	r1, #44616	; 0xae48
 2003eb4:	e3402200 	movt	r2, #512	; 0x200
 2003eb8:	e3401200 	movt	r1, #512	; 0x200
 2003ebc:	e30a0c68 	movw	r0, #44136	; 0xac68
 2003ec0:	e3003216 	movw	r3, #534	; 0x216
 2003ec4:	e3400200 	movt	r0, #512	; 0x200
 2003ec8:	e3e0c000 	mvn	ip, #0
 2003ecc:	e58dc020 	str	ip, [sp, #32]
 2003ed0:	ebfffc66 	bl	2003070 <DebugPrint>
 2003ed4:	eaffff7b 	b	2003cc8 <MergerStringToCenterOfRectangleInVideoMem+0x2f0>
 2003ed8:	e30a0e54 	movw	r0, #44628	; 0xae54
 2003edc:	e3400200 	movt	r0, #512	; 0x200
 2003ee0:	ebfffc62 	bl	2003070 <DebugPrint>
 2003ee4:	eaffff71 	b	2003cb0 <MergerStringToCenterOfRectangleInVideoMem+0x2d8>
 2003ee8:	e3e03000 	mvn	r3, #0
 2003eec:	e58d3020 	str	r3, [sp, #32]
 2003ef0:	eaffff74 	b	2003cc8 <MergerStringToCenterOfRectangleInVideoMem+0x2f0>
 2003ef4:	e30a2a14 	movw	r2, #43540	; 0xaa14
 2003ef8:	e30a1e48 	movw	r1, #44616	; 0xae48
 2003efc:	e3402200 	movt	r2, #512	; 0x200
 2003f00:	e3401200 	movt	r1, #512	; 0x200
 2003f04:	e30a0c68 	movw	r0, #44136	; 0xac68
 2003f08:	e3a03f7d 	mov	r3, #500	; 0x1f4
 2003f0c:	e3400200 	movt	r0, #512	; 0x200
 2003f10:	e3e0c000 	mvn	ip, #0
 2003f14:	e58dc020 	str	ip, [sp, #32]
 2003f18:	ebfffc54 	bl	2003070 <DebugPrint>
 2003f1c:	eaffff69 	b	2003cc8 <MergerStringToCenterOfRectangleInVideoMem+0x2f0>

02003f20 <ReleaseButton>:
 2003f20:	eafffdb5 	b	20035fc <InvertButton>

02003f24 <PressButton>:
 2003f24:	eafffdb4 	b	20035fc <InvertButton>

02003f28 <RegisterPicFileParser>:
 2003f28:	e30c398c 	movw	r3, #51596	; 0xc98c
 2003f2c:	e3403201 	movt	r3, #513	; 0x201
 2003f30:	e5932000 	ldr	r2, [r3]
 2003f34:	e3520000 	cmp	r2, #0
 2003f38:	05830000 	streq	r0, [r3]
 2003f3c:	05802010 	streq	r2, [r0, #16]
 2003f40:	1a000001 	bne	2003f4c <RegisterPicFileParser+0x24>
 2003f44:	ea000005 	b	2003f60 <RegisterPicFileParser+0x38>
 2003f48:	e1a02003 	mov	r2, r3
 2003f4c:	e5923010 	ldr	r3, [r2, #16]
 2003f50:	e3530000 	cmp	r3, #0
 2003f54:	1afffffb 	bne	2003f48 <RegisterPicFileParser+0x20>
 2003f58:	e5820010 	str	r0, [r2, #16]
 2003f5c:	e5803010 	str	r3, [r0, #16]
 2003f60:	e3a00000 	mov	r0, #0
 2003f64:	e12fff1e 	bx	lr

02003f68 <ShowPicFmts>:
 2003f68:	e30c398c 	movw	r3, #51596	; 0xc98c
 2003f6c:	e3403201 	movt	r3, #513	; 0x201
 2003f70:	e92d4070 	push	{r4, r5, r6, lr}
 2003f74:	e5935000 	ldr	r5, [r3]
 2003f78:	e3550000 	cmp	r5, #0
 2003f7c:	08bd8070 	popeq	{r4, r5, r6, pc}
 2003f80:	e30a6afc 	movw	r6, #43772	; 0xaafc
 2003f84:	e3406200 	movt	r6, #512	; 0x200
 2003f88:	e3a04000 	mov	r4, #0
 2003f8c:	e5952000 	ldr	r2, [r5]
 2003f90:	e1a01004 	mov	r1, r4
 2003f94:	e1a00006 	mov	r0, r6
 2003f98:	e2844001 	add	r4, r4, #1
 2003f9c:	ebfff4a9 	bl	2001248 <printf@plt>
 2003fa0:	e5955010 	ldr	r5, [r5, #16]
 2003fa4:	e3550000 	cmp	r5, #0
 2003fa8:	1afffff7 	bne	2003f8c <ShowPicFmts+0x24>
 2003fac:	e8bd8070 	pop	{r4, r5, r6, pc}

02003fb0 <Parser>:
 2003fb0:	e30c398c 	movw	r3, #51596	; 0xc98c
 2003fb4:	e3403201 	movt	r3, #513	; 0x201
 2003fb8:	e92d4070 	push	{r4, r5, r6, lr}
 2003fbc:	e5934000 	ldr	r4, [r3]
 2003fc0:	e3540000 	cmp	r4, #0
 2003fc4:	0a000009 	beq	2003ff0 <Parser+0x40>
 2003fc8:	e1a05000 	mov	r5, r0
 2003fcc:	ea000002 	b	2003fdc <Parser+0x2c>
 2003fd0:	e5944010 	ldr	r4, [r4, #16]
 2003fd4:	e3540000 	cmp	r4, #0
 2003fd8:	0a000004 	beq	2003ff0 <Parser+0x40>
 2003fdc:	e1a01005 	mov	r1, r5
 2003fe0:	e5940000 	ldr	r0, [r4]
 2003fe4:	ebfff44c 	bl	200111c <strcmp@plt>
 2003fe8:	e3500000 	cmp	r0, #0
 2003fec:	1afffff7 	bne	2003fd0 <Parser+0x20>
 2003ff0:	e1a00004 	mov	r0, r4
 2003ff4:	e8bd8070 	pop	{r4, r5, r6, pc}

02003ff8 <GetParser>:
 2003ff8:	e30c398c 	movw	r3, #51596	; 0xc98c
 2003ffc:	e3403201 	movt	r3, #513	; 0x201
 2004000:	e92d4070 	push	{r4, r5, r6, lr}
 2004004:	e5934000 	ldr	r4, [r3]
 2004008:	e3540000 	cmp	r4, #0
 200400c:	0a00000b 	beq	2004040 <GetParser+0x48>
 2004010:	e1a05000 	mov	r5, r0
 2004014:	ea000002 	b	2004024 <GetParser+0x2c>
 2004018:	e5944010 	ldr	r4, [r4, #16]
 200401c:	e3540000 	cmp	r4, #0
 2004020:	0a000006 	beq	2004040 <GetParser+0x48>
 2004024:	e5943004 	ldr	r3, [r4, #4]
 2004028:	e1a00005 	mov	r0, r5
 200402c:	e12fff33 	blx	r3
 2004030:	e3500000 	cmp	r0, #0
 2004034:	0afffff7 	beq	2004018 <GetParser+0x20>
 2004038:	e1a00004 	mov	r0, r4
 200403c:	e8bd8070 	pop	{r4, r5, r6, pc}
 2004040:	e3a04000 	mov	r4, #0
 2004044:	e1a00004 	mov	r0, r4
 2004048:	e8bd8070 	pop	{r4, r5, r6, pc}

0200404c <PicFmtsInit>:
 200404c:	e92d4010 	push	{r4, lr}
 2004050:	eb00008c 	bl	2004288 <BMPParserInit>
 2004054:	e1a04000 	mov	r4, r0
 2004058:	eb000160 	bl	20045e0 <JPGParserInit>
 200405c:	e1840000 	orr	r0, r4, r0
 2004060:	e8bd8010 	pop	{r4, pc}

02004064 <isBMPFormat>:
 2004064:	e5903108 	ldr	r3, [r0, #264]	; 0x108
 2004068:	e5d32000 	ldrb	r2, [r3]
 200406c:	e3520042 	cmp	r2, #66	; 0x42
 2004070:	05d30001 	ldrbeq	r0, [r3, #1]
 2004074:	0240004d 	subeq	r0, r0, #77	; 0x4d
 2004078:	016f0f10 	clzeq	r0, r0
 200407c:	01a002a0 	lsreq	r0, r0, #5
 2004080:	13a00000 	movne	r0, #0
 2004084:	e12fff1e 	bx	lr

02004088 <FreePixelDatasForBMP>:
 2004088:	e92d4010 	push	{r4, lr}
 200408c:	e5900014 	ldr	r0, [r0, #20]
 2004090:	ebfff4ab 	bl	2001344 <free@plt>
 2004094:	e3a00000 	mov	r0, #0
 2004098:	e8bd8010 	pop	{r4, pc}

0200409c <GetPixelDatasFrmBMP>:
 200409c:	e92d4ff0 	push	{r4, r5, r6, r7, r8, r9, sl, fp, lr}
 20040a0:	e24dd064 	sub	sp, sp, #100	; 0x64
 20040a4:	e5905108 	ldr	r5, [r0, #264]	; 0x108
 20040a8:	e28d300f 	add	r3, sp, #15
 20040ac:	e28dc037 	add	ip, sp, #55	; 0x37
 20040b0:	e1a07001 	mov	r7, r1
 20040b4:	e285200d 	add	r2, r5, #13
 20040b8:	e1a00002 	mov	r0, r2
 20040bc:	e5f01001 	ldrb	r1, [r0, #1]!
 20040c0:	e5e31001 	strb	r1, [r3, #1]!
 20040c4:	e153000c 	cmp	r3, ip
 20040c8:	1afffffb 	bne	20040bc <GetPixelDatasFrmBMP+0x20>
 20040cc:	e28d005f 	add	r0, sp, #95	; 0x5f
 20040d0:	e5f21001 	ldrb	r1, [r2, #1]!
 20040d4:	e5e31001 	strb	r1, [r3, #1]!
 20040d8:	e1530000 	cmp	r3, r0
 20040dc:	1afffffb 	bne	20040d0 <GetPixelDatasFrmBMP+0x34>
 20040e0:	e1ddb4b6 	ldrh	fp, [sp, #70]	; 0x46
 20040e4:	e5d5000a 	ldrb	r0, [r5, #10]
 20040e8:	e5d5100b 	ldrb	r1, [r5, #11]
 20040ec:	e35b0018 	cmp	fp, #24
 20040f0:	e5d5200c 	ldrb	r2, [r5, #12]
 20040f4:	e5d5300d 	ldrb	r3, [r5, #13]
 20040f8:	e5cd000c 	strb	r0, [sp, #12]
 20040fc:	e5cd100d 	strb	r1, [sp, #13]
 2004100:	e5cd200e 	strb	r2, [sp, #14]
 2004104:	e5cd300f 	strb	r3, [sp, #15]
 2004108:	e59da014 	ldr	sl, [sp, #20]
 200410c:	e59d9040 	ldr	r9, [sp, #64]	; 0x40
 2004110:	1a000050 	bne	2004258 <GetPixelDatasFrmBMP+0x1bc>
 2004114:	e5974008 	ldr	r4, [r7, #8]
 2004118:	e587a000 	str	sl, [r7]
 200411c:	e5879004 	str	r9, [r7, #4]
 2004120:	e008049a 	mul	r8, sl, r4
 2004124:	e3580000 	cmp	r8, #0
 2004128:	e2883007 	add	r3, r8, #7
 200412c:	b1a08003 	movlt	r8, r3
 2004130:	e1a081c8 	asr	r8, r8, #3
 2004134:	e587800c 	str	r8, [r7, #12]
 2004138:	e0000899 	mul	r0, r9, r8
 200413c:	e5870010 	str	r0, [r7, #16]
 2004140:	ebfff40a 	bl	2001170 <malloc@plt>
 2004144:	e3500000 	cmp	r0, #0
 2004148:	e1a06000 	mov	r6, r0
 200414c:	e5870014 	str	r0, [r7, #20]
 2004150:	0a00004a 	beq	2004280 <GetPixelDatasFrmBMP+0x1e4>
 2004154:	e0010a9b 	mul	r1, fp, sl
 2004158:	e59d000c 	ldr	r0, [sp, #12]
 200415c:	e2492001 	sub	r2, r9, #1
 2004160:	e3510000 	cmp	r1, #0
 2004164:	e2813007 	add	r3, r1, #7
 2004168:	a1a03001 	movge	r3, r1
 200416c:	e3590000 	cmp	r9, #0
 2004170:	e1a031c3 	asr	r3, r3, #3
 2004174:	e2833003 	add	r3, r3, #3
 2004178:	e3c33003 	bic	r3, r3, #3
 200417c:	e0220293 	mla	r2, r3, r2, r0
 2004180:	e0855002 	add	r5, r5, r2
 2004184:	da00002b 	ble	2004238 <GetPixelDatasFrmBMP+0x19c>
 2004188:	e3a07000 	mov	r7, #0
 200418c:	e2633000 	rsb	r3, r3, #0
 2004190:	e58d3000 	str	r3, [sp]
 2004194:	e08a308a 	add	r3, sl, sl, lsl #1
 2004198:	e58d3004 	str	r3, [sp, #4]
 200419c:	e3540018 	cmp	r4, #24
 20041a0:	0a000027 	beq	2004244 <GetPixelDatasFrmBMP+0x1a8>
 20041a4:	e35a0000 	cmp	sl, #0
 20041a8:	da00001c 	ble	2004220 <GetPixelDatasFrmBMP+0x184>
 20041ac:	e59d3004 	ldr	r3, [sp, #4]
 20041b0:	e1a00005 	mov	r0, r5
 20041b4:	e1a0b006 	mov	fp, r6
 20041b8:	e1a0e006 	mov	lr, r6
 20041bc:	e083c005 	add	ip, r3, r5
 20041c0:	ea00000a 	b	20041f0 <GetPixelDatasFrmBMP+0x154>
 20041c4:	e3540010 	cmp	r4, #16
 20041c8:	1a000005 	bne	20041e4 <GetPixelDatasFrmBMP+0x148>
 20041cc:	e1a031a3 	lsr	r3, r3, #3
 20041d0:	e1a011a1 	lsr	r1, r1, #3
 20041d4:	e1a03283 	lsl	r3, r3, #5
 20041d8:	e1833501 	orr	r3, r3, r1, lsl #10
 20041dc:	e18331a2 	orr	r3, r3, r2, lsr #3
 20041e0:	e0cb30b2 	strh	r3, [fp], #2
 20041e4:	e2800003 	add	r0, r0, #3
 20041e8:	e15c0000 	cmp	ip, r0
 20041ec:	0a00000b 	beq	2004220 <GetPixelDatasFrmBMP+0x184>
 20041f0:	e3540020 	cmp	r4, #32
 20041f4:	e5d02000 	ldrb	r2, [r0]
 20041f8:	e5d03001 	ldrb	r3, [r0, #1]
 20041fc:	e5d01002 	ldrb	r1, [r0, #2]
 2004200:	1affffef 	bne	20041c4 <GetPixelDatasFrmBMP+0x128>
 2004204:	e2800003 	add	r0, r0, #3
 2004208:	e1a03403 	lsl	r3, r3, #8
 200420c:	e15c0000 	cmp	ip, r0
 2004210:	e1833801 	orr	r3, r3, r1, lsl #16
 2004214:	e1833002 	orr	r3, r3, r2
 2004218:	e48e3004 	str	r3, [lr], #4
 200421c:	1afffff3 	bne	20041f0 <GetPixelDatasFrmBMP+0x154>
 2004220:	e2877001 	add	r7, r7, #1
 2004224:	e59d3000 	ldr	r3, [sp]
 2004228:	e1590007 	cmp	r9, r7
 200422c:	e0866008 	add	r6, r6, r8
 2004230:	e0855003 	add	r5, r5, r3
 2004234:	1affffd8 	bne	200419c <GetPixelDatasFrmBMP+0x100>
 2004238:	e3a00000 	mov	r0, #0
 200423c:	e28dd064 	add	sp, sp, #100	; 0x64
 2004240:	e8bd8ff0 	pop	{r4, r5, r6, r7, r8, r9, sl, fp, pc}
 2004244:	e59d2004 	ldr	r2, [sp, #4]
 2004248:	e1a01005 	mov	r1, r5
 200424c:	e1a00006 	mov	r0, r6
 2004250:	ebfff456 	bl	20013b0 <memcpy@plt>
 2004254:	eafffff1 	b	2004220 <GetPixelDatasFrmBMP+0x184>
 2004258:	e1a0100b 	mov	r1, fp
 200425c:	e30a0ed0 	movw	r0, #44752	; 0xaed0
 2004260:	e3400200 	movt	r0, #512	; 0x200
 2004264:	ebfffb81 	bl	2003070 <DebugPrint>
 2004268:	e30a0ee0 	movw	r0, #44768	; 0xaee0
 200426c:	e3a0100e 	mov	r1, #14
 2004270:	e3400200 	movt	r0, #512	; 0x200
 2004274:	ebfffb7d 	bl	2003070 <DebugPrint>
 2004278:	e3e00000 	mvn	r0, #0
 200427c:	eaffffee 	b	200423c <GetPixelDatasFrmBMP+0x1a0>
 2004280:	e3e00000 	mvn	r0, #0
 2004284:	eaffffec 	b	200423c <GetPixelDatasFrmBMP+0x1a0>

02004288 <BMPParserInit>:
 2004288:	e30c024c 	movw	r0, #49740	; 0xc24c
 200428c:	e3400201 	movt	r0, #513	; 0x201
 2004290:	eaffff24 	b	2003f28 <RegisterPicFileParser>

02004294 <FreePixelDatasForJPG>:
 2004294:	e92d4010 	push	{r4, lr}
 2004298:	e5900014 	ldr	r0, [r0, #20]
 200429c:	ebfff428 	bl	2001344 <free@plt>
 20042a0:	e3a00000 	mov	r0, #0
 20042a4:	e8bd8010 	pop	{r4, pc}

020042a8 <MyErrorExit>:
 20042a8:	e92d4070 	push	{r4, r5, r6, lr}
 20042ac:	e30c4990 	movw	r4, #51600	; 0xc990
 20042b0:	e5905000 	ldr	r5, [r0]
 20042b4:	e3404201 	movt	r4, #513	; 0x201
 20042b8:	e1a01004 	mov	r1, r4
 20042bc:	e595300c 	ldr	r3, [r5, #12]
 20042c0:	e12fff33 	blx	r3
 20042c4:	e1a01004 	mov	r1, r4
 20042c8:	e30a0d80 	movw	r0, #44416	; 0xad80
 20042cc:	e3400200 	movt	r0, #512	; 0x200
 20042d0:	ebfffb66 	bl	2003070 <DebugPrint>
 20042d4:	e2850088 	add	r0, r5, #136	; 0x88
 20042d8:	e3a01001 	mov	r1, #1
 20042dc:	ebfff424 	bl	2001374 <longjmp@plt>

020042e0 <isJPGFormat>:
 20042e0:	e92d4010 	push	{r4, lr}
 20042e4:	e24ddb01 	sub	sp, sp, #1024	; 0x400
 20042e8:	e3a02000 	mov	r2, #0
 20042ec:	e58d0004 	str	r0, [sp, #4]
 20042f0:	e1a01002 	mov	r1, r2
 20042f4:	e5900100 	ldr	r0, [r0, #256]	; 0x100
 20042f8:	ebfff438 	bl	20013e0 <fseek@plt>
 20042fc:	e28d0e1f 	add	r0, sp, #496	; 0x1f0
 2004300:	ebfff3eb 	bl	20012b4 <jpeg_std_error@plt>
 2004304:	e30432a8 	movw	r3, #17064	; 0x42a8
 2004308:	e3403200 	movt	r3, #512	; 0x200
 200430c:	e58d31f0 	str	r3, [sp, #496]	; 0x1f0
 2004310:	e58d0008 	str	r0, [sp, #8]
 2004314:	e28d0f9e 	add	r0, sp, #632	; 0x278
 2004318:	ebfff3a9 	bl	20011c4 <setjmp@plt>
 200431c:	e3500000 	cmp	r0, #0
 2004320:	0a000004 	beq	2004338 <isJPGFormat+0x58>
 2004324:	e28d0008 	add	r0, sp, #8
 2004328:	ebfff42f 	bl	20013ec <jpeg_destroy_decompress@plt>
 200432c:	e3a00000 	mov	r0, #0
 2004330:	e28ddb01 	add	sp, sp, #1024	; 0x400
 2004334:	e8bd8010 	pop	{r4, pc}
 2004338:	e3a02f7a 	mov	r2, #488	; 0x1e8
 200433c:	e28d0008 	add	r0, sp, #8
 2004340:	e3a0105a 	mov	r1, #90	; 0x5a
 2004344:	ebfff3ce 	bl	2001284 <jpeg_CreateDecompress@plt>
 2004348:	e59d3004 	ldr	r3, [sp, #4]
 200434c:	e28d0008 	add	r0, sp, #8
 2004350:	e5931100 	ldr	r1, [r3, #256]	; 0x100
 2004354:	ebfff39d 	bl	20011d0 <jpeg_stdio_src@plt>
 2004358:	e3a01001 	mov	r1, #1
 200435c:	e28d0008 	add	r0, sp, #8
 2004360:	ebfff3dc 	bl	20012d8 <jpeg_read_header@plt>
 2004364:	e1a04000 	mov	r4, r0
 2004368:	e28d0008 	add	r0, sp, #8
 200436c:	ebfff379 	bl	2001158 <jpeg_abort_decompress@plt>
 2004370:	e2440001 	sub	r0, r4, #1
 2004374:	e16f0f10 	clz	r0, r0
 2004378:	e1a002a0 	lsr	r0, r0, #5
 200437c:	e28ddb01 	add	sp, sp, #1024	; 0x400
 2004380:	e8bd8010 	pop	{r4, pc}

02004384 <GetPixelDatasFrmJPG>:
 2004384:	e92d47f0 	push	{r4, r5, r6, r7, r8, r9, sl, lr}
 2004388:	e24ddb01 	sub	sp, sp, #1024	; 0x400
 200438c:	e24dd008 	sub	sp, sp, #8
 2004390:	e3a03000 	mov	r3, #0
 2004394:	e1a02003 	mov	r2, r3
 2004398:	e58d0004 	str	r0, [sp, #4]
 200439c:	e58d1000 	str	r1, [sp]
 20043a0:	e1a01003 	mov	r1, r3
 20043a4:	e5900100 	ldr	r0, [r0, #256]	; 0x100
 20043a8:	e58d300c 	str	r3, [sp, #12]
 20043ac:	ebfff40b 	bl	20013e0 <fseek@plt>
 20043b0:	e28d0f7e 	add	r0, sp, #504	; 0x1f8
 20043b4:	ebfff3be 	bl	20012b4 <jpeg_std_error@plt>
 20043b8:	e30432a8 	movw	r3, #17064	; 0x42a8
 20043bc:	e3403200 	movt	r3, #512	; 0x200
 20043c0:	e58d31f8 	str	r3, [sp, #504]	; 0x1f8
 20043c4:	e58d0010 	str	r0, [sp, #16]
 20043c8:	e28d0d0a 	add	r0, sp, #640	; 0x280
 20043cc:	ebfff37c 	bl	20011c4 <setjmp@plt>
 20043d0:	e2507000 	subs	r7, r0, #0
 20043d4:	0a00000f 	beq	2004418 <GetPixelDatasFrmJPG+0x94>
 20043d8:	e28d0010 	add	r0, sp, #16
 20043dc:	ebfff402 	bl	20013ec <jpeg_destroy_decompress@plt>
 20043e0:	e59d000c 	ldr	r0, [sp, #12]
 20043e4:	e3500000 	cmp	r0, #0
 20043e8:	0a000000 	beq	20043f0 <GetPixelDatasFrmJPG+0x6c>
 20043ec:	ebfff3d4 	bl	2001344 <free@plt>
 20043f0:	e59d3000 	ldr	r3, [sp]
 20043f4:	e5930014 	ldr	r0, [r3, #20]
 20043f8:	e3500000 	cmp	r0, #0
 20043fc:	0a00006d 	beq	20045b8 <GetPixelDatasFrmJPG+0x234>
 2004400:	ebfff3cf 	bl	2001344 <free@plt>
 2004404:	e3e07000 	mvn	r7, #0
 2004408:	e1a00007 	mov	r0, r7
 200440c:	e28ddb01 	add	sp, sp, #1024	; 0x400
 2004410:	e28dd008 	add	sp, sp, #8
 2004414:	e8bd87f0 	pop	{r4, r5, r6, r7, r8, r9, sl, pc}
 2004418:	e28d5010 	add	r5, sp, #16
 200441c:	e3a02f7a 	mov	r2, #488	; 0x1e8
 2004420:	e3a0105a 	mov	r1, #90	; 0x5a
 2004424:	e3a06001 	mov	r6, #1
 2004428:	e1a00005 	mov	r0, r5
 200442c:	ebfff394 	bl	2001284 <jpeg_CreateDecompress@plt>
 2004430:	e59d3004 	ldr	r3, [sp, #4]
 2004434:	e1a00005 	mov	r0, r5
 2004438:	e5931100 	ldr	r1, [r3, #256]	; 0x100
 200443c:	ebfff363 	bl	20011d0 <jpeg_stdio_src@plt>
 2004440:	e1a01006 	mov	r1, r6
 2004444:	e1a00005 	mov	r0, r5
 2004448:	ebfff3a2 	bl	20012d8 <jpeg_read_header@plt>
 200444c:	e1a00005 	mov	r0, r5
 2004450:	e58d6044 	str	r6, [sp, #68]	; 0x44
 2004454:	e58d6040 	str	r6, [sp, #64]	; 0x40
 2004458:	ebfff380 	bl	2001260 <jpeg_start_decompress@plt>
 200445c:	e59d4080 	ldr	r4, [sp, #128]	; 0x80
 2004460:	e59d008c 	ldr	r0, [sp, #140]	; 0x8c
 2004464:	e0000490 	mul	r0, r0, r4
 2004468:	ebfff340 	bl	2001170 <malloc@plt>
 200446c:	e3500000 	cmp	r0, #0
 2004470:	e1a08000 	mov	r8, r0
 2004474:	e58d000c 	str	r0, [sp, #12]
 2004478:	0a00004e 	beq	20045b8 <GetPixelDatasFrmJPG+0x234>
 200447c:	e59da000 	ldr	sl, [sp]
 2004480:	e59d9084 	ldr	r9, [sp, #132]	; 0x84
 2004484:	e59a3008 	ldr	r3, [sl, #8]
 2004488:	e58a4000 	str	r4, [sl]
 200448c:	e58a9004 	str	r9, [sl, #4]
 2004490:	e0030493 	mul	r3, r3, r4
 2004494:	e2830007 	add	r0, r3, #7
 2004498:	e3530000 	cmp	r3, #0
 200449c:	b1a03000 	movlt	r3, r0
 20044a0:	e1a001c3 	asr	r0, r3, #3
 20044a4:	e58a000c 	str	r0, [sl, #12]
 20044a8:	e0000990 	mul	r0, r0, r9
 20044ac:	e58a0010 	str	r0, [sl, #16]
 20044b0:	ebfff32e 	bl	2001170 <malloc@plt>
 20044b4:	e3500000 	cmp	r0, #0
 20044b8:	e1a04000 	mov	r4, r0
 20044bc:	e58a0014 	str	r0, [sl, #20]
 20044c0:	0a00003c 	beq	20045b8 <GetPixelDatasFrmJPG+0x234>
 20044c4:	e59d309c 	ldr	r3, [sp, #156]	; 0x9c
 20044c8:	e1590003 	cmp	r9, r3
 20044cc:	9a00002f 	bls	2004590 <GetPixelDatasFrmJPG+0x20c>
 20044d0:	e1a02006 	mov	r2, r6
 20044d4:	e28d100c 	add	r1, sp, #12
 20044d8:	e1a00005 	mov	r0, r5
 20044dc:	ebfff3b0 	bl	20013a4 <jpeg_read_scanlines@plt>
 20044e0:	e59d3000 	ldr	r3, [sp]
 20044e4:	e59d800c 	ldr	r8, [sp, #12]
 20044e8:	e5930008 	ldr	r0, [r3, #8]
 20044ec:	e5932000 	ldr	r2, [r3]
 20044f0:	e3500018 	cmp	r0, #24
 20044f4:	0a000034 	beq	20045cc <GetPixelDatasFrmJPG+0x248>
 20044f8:	e3520000 	cmp	r2, #0
 20044fc:	da00001c 	ble	2004574 <GetPixelDatasFrmJPG+0x1f0>
 2004500:	e0822082 	add	r2, r2, r2, lsl #1
 2004504:	e1a03008 	mov	r3, r8
 2004508:	e0821008 	add	r1, r2, r8
 200450c:	e1a0e004 	mov	lr, r4
 2004510:	e1a0c004 	mov	ip, r4
 2004514:	ea00000a 	b	2004544 <GetPixelDatasFrmJPG+0x1c0>
 2004518:	e3500010 	cmp	r0, #16
 200451c:	1a000005 	bne	2004538 <GetPixelDatasFrmJPG+0x1b4>
 2004520:	e1a021a2 	lsr	r2, r2, #3
 2004524:	e1a0a1aa 	lsr	sl, sl, #3
 2004528:	e1a02282 	lsl	r2, r2, #5
 200452c:	e182250a 	orr	r2, r2, sl, lsl #10
 2004530:	e18221a9 	orr	r2, r2, r9, lsr #3
 2004534:	e0ce20b2 	strh	r2, [lr], #2
 2004538:	e2833003 	add	r3, r3, #3
 200453c:	e1510003 	cmp	r1, r3
 2004540:	0a00000b 	beq	2004574 <GetPixelDatasFrmJPG+0x1f0>
 2004544:	e3500020 	cmp	r0, #32
 2004548:	e5d3a000 	ldrb	sl, [r3]
 200454c:	e5d32001 	ldrb	r2, [r3, #1]
 2004550:	e5d39002 	ldrb	r9, [r3, #2]
 2004554:	1affffef 	bne	2004518 <GetPixelDatasFrmJPG+0x194>
 2004558:	e2833003 	add	r3, r3, #3
 200455c:	e1a02402 	lsl	r2, r2, #8
 2004560:	e1510003 	cmp	r1, r3
 2004564:	e182280a 	orr	r2, r2, sl, lsl #16
 2004568:	e1822009 	orr	r2, r2, r9
 200456c:	e48c2004 	str	r2, [ip], #4
 2004570:	1afffff3 	bne	2004544 <GetPixelDatasFrmJPG+0x1c0>
 2004574:	e59d3000 	ldr	r3, [sp]
 2004578:	e59d109c 	ldr	r1, [sp, #156]	; 0x9c
 200457c:	e59d2084 	ldr	r2, [sp, #132]	; 0x84
 2004580:	e593300c 	ldr	r3, [r3, #12]
 2004584:	e1510002 	cmp	r1, r2
 2004588:	e0844003 	add	r4, r4, r3
 200458c:	3affffcf 	bcc	20044d0 <GetPixelDatasFrmJPG+0x14c>
 2004590:	e1a00008 	mov	r0, r8
 2004594:	ebfff36a 	bl	2001344 <free@plt>
 2004598:	e28d0010 	add	r0, sp, #16
 200459c:	ebfff350 	bl	20012e4 <jpeg_finish_decompress@plt>
 20045a0:	e28d0010 	add	r0, sp, #16
 20045a4:	ebfff390 	bl	20013ec <jpeg_destroy_decompress@plt>
 20045a8:	e1a00007 	mov	r0, r7
 20045ac:	e28ddb01 	add	sp, sp, #1024	; 0x400
 20045b0:	e28dd008 	add	sp, sp, #8
 20045b4:	e8bd87f0 	pop	{r4, r5, r6, r7, r8, r9, sl, pc}
 20045b8:	e3e07000 	mvn	r7, #0
 20045bc:	e1a00007 	mov	r0, r7
 20045c0:	e28ddb01 	add	sp, sp, #1024	; 0x400
 20045c4:	e28dd008 	add	sp, sp, #8
 20045c8:	e8bd87f0 	pop	{r4, r5, r6, r7, r8, r9, sl, pc}
 20045cc:	e0822082 	add	r2, r2, r2, lsl #1
 20045d0:	e1a01008 	mov	r1, r8
 20045d4:	e1a00004 	mov	r0, r4
 20045d8:	ebfff374 	bl	20013b0 <memcpy@plt>
 20045dc:	eaffffe4 	b	2004574 <GetPixelDatasFrmJPG+0x1f0>

020045e0 <JPGParserInit>:
 20045e0:	e30c0260 	movw	r0, #49760	; 0xc260
 20045e4:	e3400201 	movt	r0, #513	; 0x201
 20045e8:	eafffe4e 	b	2003f28 <RegisterPicFileParser>

020045ec <PicZoom>:
 20045ec:	e5902008 	ldr	r2, [r0, #8]
 20045f0:	e591c008 	ldr	ip, [r1, #8]
 20045f4:	e3520000 	cmp	r2, #0
 20045f8:	e2823007 	add	r3, r2, #7
 20045fc:	e92d4ff0 	push	{r4, r5, r6, r7, r8, r9, sl, fp, lr}
 2004600:	a1a03002 	movge	r3, r2
 2004604:	e591e000 	ldr	lr, [r1]
 2004608:	e24dd014 	sub	sp, sp, #20
 200460c:	e152000c 	cmp	r2, ip
 2004610:	e58de00c 	str	lr, [sp, #12]
 2004614:	1a000044 	bne	200472c <PicZoom+0x140>
 2004618:	e1a0810e 	lsl	r8, lr, #2
 200461c:	e1a0b000 	mov	fp, r0
 2004620:	e1a0a1c3 	asr	sl, r3, #3
 2004624:	e1a0400e 	mov	r4, lr
 2004628:	e1a00008 	mov	r0, r8
 200462c:	e58d1000 	str	r1, [sp]
 2004630:	ebfff2ce 	bl	2001170 <malloc@plt>
 2004634:	e2503000 	subs	r3, r0, #0
 2004638:	e58d3008 	str	r3, [sp, #8]
 200463c:	0a00003c 	beq	2004734 <PicZoom+0x148>
 2004640:	e3540000 	cmp	r4, #0
 2004644:	0a00000b 	beq	2004678 <PicZoom+0x8c>
 2004648:	e59d7008 	ldr	r7, [sp, #8]
 200464c:	e3a06000 	mov	r6, #0
 2004650:	e59b5000 	ldr	r5, [fp]
 2004654:	e59d900c 	ldr	r9, [sp, #12]
 2004658:	e0884007 	add	r4, r8, r7
 200465c:	e1a00006 	mov	r0, r6
 2004660:	e1a01009 	mov	r1, r9
 2004664:	eb000fae 	bl	2008524 <__udivsi3>
 2004668:	e0866005 	add	r6, r6, r5
 200466c:	e4870004 	str	r0, [r7], #4
 2004670:	e1540007 	cmp	r4, r7
 2004674:	1afffff8 	bne	200465c <PicZoom+0x70>
 2004678:	e59d3000 	ldr	r3, [sp]
 200467c:	e5935004 	ldr	r5, [r3, #4]
 2004680:	e3550000 	cmp	r5, #0
 2004684:	0a000023 	beq	2004718 <PicZoom+0x12c>
 2004688:	e59d3008 	ldr	r3, [sp, #8]
 200468c:	e3a09000 	mov	r9, #0
 2004690:	e1a04005 	mov	r4, r5
 2004694:	e0888003 	add	r8, r8, r3
 2004698:	e59d3000 	ldr	r3, [sp]
 200469c:	e1a01004 	mov	r1, r4
 20046a0:	e59b0004 	ldr	r0, [fp, #4]
 20046a4:	e59b7014 	ldr	r7, [fp, #20]
 20046a8:	e593500c 	ldr	r5, [r3, #12]
 20046ac:	e5933014 	ldr	r3, [r3, #20]
 20046b0:	e0000990 	mul	r0, r0, r9
 20046b4:	e58d3004 	str	r3, [sp, #4]
 20046b8:	eb000f99 	bl	2008524 <__udivsi3>
 20046bc:	e59d300c 	ldr	r3, [sp, #12]
 20046c0:	e59b600c 	ldr	r6, [fp, #12]
 20046c4:	e3530000 	cmp	r3, #0
 20046c8:	e0050995 	mul	r5, r5, r9
 20046cc:	e0060096 	mul	r6, r6, r0
 20046d0:	0a00000d 	beq	200470c <PicZoom+0x120>
 20046d4:	e59d3004 	ldr	r3, [sp, #4]
 20046d8:	e0834005 	add	r4, r3, r5
 20046dc:	e59d5008 	ldr	r5, [sp, #8]
 20046e0:	e4951004 	ldr	r1, [r5], #4
 20046e4:	e1a00004 	mov	r0, r4
 20046e8:	e1a0200a 	mov	r2, sl
 20046ec:	e084400a 	add	r4, r4, sl
 20046f0:	e021619a 	mla	r1, sl, r1, r6
 20046f4:	e0871001 	add	r1, r7, r1
 20046f8:	ebfff32c 	bl	20013b0 <memcpy@plt>
 20046fc:	e1550008 	cmp	r5, r8
 2004700:	1afffff6 	bne	20046e0 <PicZoom+0xf4>
 2004704:	e59d3000 	ldr	r3, [sp]
 2004708:	e5934004 	ldr	r4, [r3, #4]
 200470c:	e2899001 	add	r9, r9, #1
 2004710:	e1540009 	cmp	r4, r9
 2004714:	8affffdf 	bhi	2004698 <PicZoom+0xac>
 2004718:	e59d0008 	ldr	r0, [sp, #8]
 200471c:	ebfff308 	bl	2001344 <free@plt>
 2004720:	e3a00000 	mov	r0, #0
 2004724:	e28dd014 	add	sp, sp, #20
 2004728:	e8bd8ff0 	pop	{r4, r5, r6, r7, r8, r9, sl, fp, pc}
 200472c:	e3e00000 	mvn	r0, #0
 2004730:	eafffffb 	b	2004724 <PicZoom+0x138>
 2004734:	e30a0f00 	movw	r0, #44800	; 0xaf00
 2004738:	e3400200 	movt	r0, #512	; 0x200
 200473c:	ebfffa4b 	bl	2003070 <DebugPrint>
 2004740:	e3e00000 	mvn	r0, #0
 2004744:	eafffff6 	b	2004724 <PicZoom+0x138>

02004748 <PicMerge>:
 2004748:	e92d41f0 	push	{r4, r5, r6, r7, r8, lr}
 200474c:	e593c000 	ldr	ip, [r3]
 2004750:	e592e000 	ldr	lr, [r2]
 2004754:	e15e000c 	cmp	lr, ip
 2004758:	ca000024 	bgt	20047f0 <PicMerge+0xa8>
 200475c:	e592c004 	ldr	ip, [r2, #4]
 2004760:	e593e004 	ldr	lr, [r3, #4]
 2004764:	e15c000e 	cmp	ip, lr
 2004768:	ca000020 	bgt	20047f0 <PicMerge+0xa8>
 200476c:	e592e008 	ldr	lr, [r2, #8]
 2004770:	e5934008 	ldr	r4, [r3, #8]
 2004774:	e15e0004 	cmp	lr, r4
 2004778:	1a00001c 	bne	20047f0 <PicMerge+0xa8>
 200477c:	e0000e90 	mul	r0, r0, lr
 2004780:	e593e00c 	ldr	lr, [r3, #12]
 2004784:	e5934014 	ldr	r4, [r3, #20]
 2004788:	e5926014 	ldr	r6, [r2, #20]
 200478c:	e3500000 	cmp	r0, #0
 2004790:	e2805007 	add	r5, r0, #7
 2004794:	b1a00005 	movlt	r0, r5
 2004798:	e35c0000 	cmp	ip, #0
 200479c:	e1a001c0 	asr	r0, r0, #3
 20047a0:	e020019e 	mla	r0, lr, r1, r0
 20047a4:	e0844000 	add	r4, r4, r0
 20047a8:	da00000e 	ble	20047e8 <PicMerge+0xa0>
 20047ac:	e1a05002 	mov	r5, r2
 20047b0:	e592200c 	ldr	r2, [r2, #12]
 20047b4:	e1a08003 	mov	r8, r3
 20047b8:	e3a07000 	mov	r7, #0
 20047bc:	e1a01006 	mov	r1, r6
 20047c0:	e1a00004 	mov	r0, r4
 20047c4:	ebfff2f9 	bl	20013b0 <memcpy@plt>
 20047c8:	e5953004 	ldr	r3, [r5, #4]
 20047cc:	e2877001 	add	r7, r7, #1
 20047d0:	e595200c 	ldr	r2, [r5, #12]
 20047d4:	e1530007 	cmp	r3, r7
 20047d8:	e598300c 	ldr	r3, [r8, #12]
 20047dc:	e0866002 	add	r6, r6, r2
 20047e0:	e0844003 	add	r4, r4, r3
 20047e4:	cafffff4 	bgt	20047bc <PicMerge+0x74>
 20047e8:	e3a00000 	mov	r0, #0
 20047ec:	e8bd81f0 	pop	{r4, r5, r6, r7, r8, pc}
 20047f0:	e3e00000 	mvn	r0, #0
 20047f4:	e8bd81f0 	pop	{r4, r5, r6, r7, r8, pc}

020047f8 <PicMergeRegion>:
 20047f8:	e92d47f0 	push	{r4, r5, r6, r7, r8, r9, sl, lr}
 20047fc:	e3500000 	cmp	r0, #0
 2004800:	e59d7028 	ldr	r7, [sp, #40]	; 0x28
 2004804:	e59d9024 	ldr	r9, [sp, #36]	; 0x24
 2004808:	e59d802c 	ldr	r8, [sp, #44]	; 0x2c
 200480c:	e5976008 	ldr	r6, [r7, #8]
 2004810:	ba00003c 	blt	2004908 <PicMergeRegion+0x110>
 2004814:	e597c000 	ldr	ip, [r7]
 2004818:	e15c0000 	cmp	ip, r0
 200481c:	c3a0c000 	movgt	ip, #0
 2004820:	d3a0c001 	movle	ip, #1
 2004824:	e19ccfa1 	orrs	ip, ip, r1, lsr #31
 2004828:	1a000036 	bne	2004908 <PicMergeRegion+0x110>
 200482c:	e597c004 	ldr	ip, [r7, #4]
 2004830:	e15c0001 	cmp	ip, r1
 2004834:	c3a0c000 	movgt	ip, #0
 2004838:	d3a0c001 	movle	ip, #1
 200483c:	e19ccfa2 	orrs	ip, ip, r2, lsr #31
 2004840:	1a000030 	bne	2004908 <PicMergeRegion+0x110>
 2004844:	e598c000 	ldr	ip, [r8]
 2004848:	e1a04fa3 	lsr	r4, r3, #31
 200484c:	e15c0002 	cmp	ip, r2
 2004850:	d3844001 	orrle	r4, r4, #1
 2004854:	e3540000 	cmp	r4, #0
 2004858:	1a00002a 	bne	2004908 <PicMergeRegion+0x110>
 200485c:	e598c004 	ldr	ip, [r8, #4]
 2004860:	e15c0003 	cmp	ip, r3
 2004864:	da000027 	ble	2004908 <PicMergeRegion+0x110>
 2004868:	e0000690 	mul	r0, r0, r6
 200486c:	e5985008 	ldr	r5, [r8, #8]
 2004870:	e598e00c 	ldr	lr, [r8, #12]
 2004874:	e280c007 	add	ip, r0, #7
 2004878:	e3500000 	cmp	r0, #0
 200487c:	e0020295 	mul	r2, r5, r2
 2004880:	b1a0000c 	movlt	r0, ip
 2004884:	e597c00c 	ldr	ip, [r7, #12]
 2004888:	e1a001c0 	asr	r0, r0, #3
 200488c:	e003039e 	mul	r3, lr, r3
 2004890:	e3520000 	cmp	r2, #0
 2004894:	e020019c 	mla	r0, ip, r1, r0
 2004898:	e2821007 	add	r1, r2, #7
 200489c:	e5975014 	ldr	r5, [r7, #20]
 20048a0:	b1a02001 	movlt	r2, r1
 20048a4:	e598c014 	ldr	ip, [r8, #20]
 20048a8:	e3590000 	cmp	r9, #0
 20048ac:	e08321c2 	add	r2, r3, r2, asr #3
 20048b0:	e0855000 	add	r5, r5, r0
 20048b4:	e08c3002 	add	r3, ip, r2
 20048b8:	da000010 	ble	2004900 <PicMergeRegion+0x108>
 20048bc:	e59d2020 	ldr	r2, [sp, #32]
 20048c0:	e0060692 	mul	r6, r2, r6
 20048c4:	e2862007 	add	r2, r6, #7
 20048c8:	e3560000 	cmp	r6, #0
 20048cc:	b1a06002 	movlt	r6, r2
 20048d0:	e1a061c6 	asr	r6, r6, #3
 20048d4:	e1a01005 	mov	r1, r5
 20048d8:	e1a02006 	mov	r2, r6
 20048dc:	e1a00003 	mov	r0, r3
 20048e0:	e2844001 	add	r4, r4, #1
 20048e4:	ebfff2b1 	bl	20013b0 <memcpy@plt>
 20048e8:	e597100c 	ldr	r1, [r7, #12]
 20048ec:	e598200c 	ldr	r2, [r8, #12]
 20048f0:	e1590004 	cmp	r9, r4
 20048f4:	e0855001 	add	r5, r5, r1
 20048f8:	e0803002 	add	r3, r0, r2
 20048fc:	1afffff4 	bne	20048d4 <PicMergeRegion+0xdc>
 2004900:	e3a00000 	mov	r0, #0
 2004904:	e8bd87f0 	pop	{r4, r5, r6, r7, r8, r9, sl, pc}
 2004908:	e3e00000 	mvn	r0, #0
 200490c:	e8bd87f0 	pop	{r4, r5, r6, r7, r8, r9, sl, pc}

02004910 <RegisterPageAction>:
 2004910:	e30c3a58 	movw	r3, #51800	; 0xca58
 2004914:	e3403201 	movt	r3, #513	; 0x201
 2004918:	e5932000 	ldr	r2, [r3]
 200491c:	e3520000 	cmp	r2, #0
 2004920:	05830000 	streq	r0, [r3]
 2004924:	05802010 	streq	r2, [r0, #16]
 2004928:	1a000001 	bne	2004934 <RegisterPageAction+0x24>
 200492c:	ea000005 	b	2004948 <RegisterPageAction+0x38>
 2004930:	e1a02003 	mov	r2, r3
 2004934:	e5923010 	ldr	r3, [r2, #16]
 2004938:	e3530000 	cmp	r3, #0
 200493c:	1afffffb 	bne	2004930 <RegisterPageAction+0x20>
 2004940:	e5820010 	str	r0, [r2, #16]
 2004944:	e5803010 	str	r3, [r0, #16]
 2004948:	e3a00000 	mov	r0, #0
 200494c:	e12fff1e 	bx	lr

02004950 <ShowPages>:
 2004950:	e30c3a58 	movw	r3, #51800	; 0xca58
 2004954:	e3403201 	movt	r3, #513	; 0x201
 2004958:	e92d4070 	push	{r4, r5, r6, lr}
 200495c:	e5935000 	ldr	r5, [r3]
 2004960:	e3550000 	cmp	r5, #0
 2004964:	08bd8070 	popeq	{r4, r5, r6, pc}
 2004968:	e30a6afc 	movw	r6, #43772	; 0xaafc
 200496c:	e3406200 	movt	r6, #512	; 0x200
 2004970:	e3a04000 	mov	r4, #0
 2004974:	e5952000 	ldr	r2, [r5]
 2004978:	e1a01004 	mov	r1, r4
 200497c:	e1a00006 	mov	r0, r6
 2004980:	e2844001 	add	r4, r4, #1
 2004984:	ebfff22f 	bl	2001248 <printf@plt>
 2004988:	e5955010 	ldr	r5, [r5, #16]
 200498c:	e3550000 	cmp	r5, #0
 2004990:	1afffff7 	bne	2004974 <ShowPages+0x24>
 2004994:	e8bd8070 	pop	{r4, r5, r6, pc}

02004998 <Page>:
 2004998:	e30c3a58 	movw	r3, #51800	; 0xca58
 200499c:	e3403201 	movt	r3, #513	; 0x201
 20049a0:	e92d4070 	push	{r4, r5, r6, lr}
 20049a4:	e5934000 	ldr	r4, [r3]
 20049a8:	e3540000 	cmp	r4, #0
 20049ac:	0a000009 	beq	20049d8 <Page+0x40>
 20049b0:	e1a05000 	mov	r5, r0
 20049b4:	ea000002 	b	20049c4 <Page+0x2c>
 20049b8:	e5944010 	ldr	r4, [r4, #16]
 20049bc:	e3540000 	cmp	r4, #0
 20049c0:	0a000004 	beq	20049d8 <Page+0x40>
 20049c4:	e1a01005 	mov	r1, r5
 20049c8:	e5940000 	ldr	r0, [r4]
 20049cc:	ebfff1d2 	bl	200111c <strcmp@plt>
 20049d0:	e3500000 	cmp	r0, #0
 20049d4:	1afffff7 	bne	20049b8 <Page+0x20>
 20049d8:	e1a00004 	mov	r0, r4
 20049dc:	e8bd8070 	pop	{r4, r5, r6, pc}

020049e0 <ID>:
 20049e0:	e5d03000 	ldrb	r3, [r0]
 20049e4:	e5d01001 	ldrb	r1, [r0, #1]
 20049e8:	e5d02002 	ldrb	r2, [r0, #2]
 20049ec:	e0833001 	add	r3, r3, r1
 20049f0:	e5d00003 	ldrb	r0, [r0, #3]
 20049f4:	e0833002 	add	r3, r3, r2
 20049f8:	e0830000 	add	r0, r3, r0
 20049fc:	e12fff1e 	bx	lr

02004a00 <GeneratePage>:
 2004a00:	e591300c 	ldr	r3, [r1, #12]
 2004a04:	e3530002 	cmp	r3, #2
 2004a08:	0a00004b 	beq	2004b3c <GeneratePage+0x13c>
 2004a0c:	e92d4070 	push	{r4, r5, r6, lr}
 2004a10:	e1a05001 	mov	r5, r1
 2004a14:	e24dd030 	sub	sp, sp, #48	; 0x30
 2004a18:	e1a06000 	mov	r6, r0
 2004a1c:	e30d1bb5 	movw	r1, #56245	; 0xdbb5
 2004a20:	e1a00005 	mov	r0, r5
 2004a24:	e34010e7 	movt	r1, #231	; 0xe7
 2004a28:	e5964018 	ldr	r4, [r6, #24]
 2004a2c:	ebfff40e 	bl	2001a6c <ClearVideoMem>
 2004a30:	e5963010 	ldr	r3, [r6, #16]
 2004a34:	e5960014 	ldr	r0, [r6, #20]
 2004a38:	e58d3020 	str	r3, [sp, #32]
 2004a3c:	ebfff1cb 	bl	2001170 <malloc@plt>
 2004a40:	e3500000 	cmp	r0, #0
 2004a44:	e1a03000 	mov	r3, r0
 2004a48:	e58d002c 	str	r0, [sp, #44]	; 0x2c
 2004a4c:	0a00003c 	beq	2004b44 <GeneratePage+0x144>
 2004a50:	e5940010 	ldr	r0, [r4, #16]
 2004a54:	e3500000 	cmp	r0, #0
 2004a58:	0a000030 	beq	2004b20 <GeneratePage+0x120>
 2004a5c:	e2844014 	add	r4, r4, #20
 2004a60:	e2856010 	add	r6, r5, #16
 2004a64:	ea00001d 	b	2004ae0 <GeneratePage+0xe0>
 2004a68:	e514c010 	ldr	ip, [r4, #-16]
 2004a6c:	e2844014 	add	r4, r4, #20
 2004a70:	e514301c 	ldr	r3, [r4, #-28]	; 0xffffffe4
 2004a74:	e59d2020 	ldr	r2, [sp, #32]
 2004a78:	e043300c 	sub	r3, r3, ip
 2004a7c:	e283c001 	add	ip, r3, #1
 2004a80:	e58dc01c 	str	ip, [sp, #28]
 2004a84:	e514e028 	ldr	lr, [r4, #-40]	; 0xffffffd8
 2004a88:	e5143020 	ldr	r3, [r4, #-32]	; 0xffffffe0
 2004a8c:	e043300e 	sub	r3, r3, lr
 2004a90:	e2833001 	add	r3, r3, #1
 2004a94:	e58d3018 	str	r3, [sp, #24]
 2004a98:	e0030392 	mul	r3, r2, r3
 2004a9c:	e3530000 	cmp	r3, #0
 2004aa0:	e2832007 	add	r2, r3, #7
 2004aa4:	b1a03002 	movlt	r3, r2
 2004aa8:	e1a031c3 	asr	r3, r3, #3
 2004aac:	e58d3024 	str	r3, [sp, #36]	; 0x24
 2004ab0:	e0030c93 	mul	r3, r3, ip
 2004ab4:	e58d3028 	str	r3, [sp, #40]	; 0x28
 2004ab8:	ebfffecb 	bl	20045ec <PicZoom>
 2004abc:	e14402d8 	ldrd	r0, [r4, #-40]	; 0xffffffd8
 2004ac0:	e1a03006 	mov	r3, r6
 2004ac4:	e28d2018 	add	r2, sp, #24
 2004ac8:	ebffff1e 	bl	2004748 <PicMerge>
 2004acc:	e1a0000d 	mov	r0, sp
 2004ad0:	ebfffb46 	bl	20037f0 <FreePixelDatasForIcon>
 2004ad4:	e5140004 	ldr	r0, [r4, #-4]
 2004ad8:	e3500000 	cmp	r0, #0
 2004adc:	0a00000e 	beq	2004b1c <GeneratePage+0x11c>
 2004ae0:	e1a0100d 	mov	r1, sp
 2004ae4:	ebfffaf8 	bl	20036cc <GetPixelDatasForIcon>
 2004ae8:	e28d1018 	add	r1, sp, #24
 2004aec:	e3500000 	cmp	r0, #0
 2004af0:	e1a0000d 	mov	r0, sp
 2004af4:	0affffdb 	beq	2004a68 <GeneratePage+0x68>
 2004af8:	e5141004 	ldr	r1, [r4, #-4]
 2004afc:	e30a0f10 	movw	r0, #44816	; 0xaf10
 2004b00:	e3400200 	movt	r0, #512	; 0x200
 2004b04:	ebfff959 	bl	2003070 <DebugPrint>
 2004b08:	e59d002c 	ldr	r0, [sp, #44]	; 0x2c
 2004b0c:	ebfff20c 	bl	2001344 <free@plt>
 2004b10:	e3e00000 	mvn	r0, #0
 2004b14:	e28dd030 	add	sp, sp, #48	; 0x30
 2004b18:	e8bd8070 	pop	{r4, r5, r6, pc}
 2004b1c:	e59d302c 	ldr	r3, [sp, #44]	; 0x2c
 2004b20:	e1a00003 	mov	r0, r3
 2004b24:	ebfff206 	bl	2001344 <free@plt>
 2004b28:	e3a03002 	mov	r3, #2
 2004b2c:	e3a00000 	mov	r0, #0
 2004b30:	e585300c 	str	r3, [r5, #12]
 2004b34:	e28dd030 	add	sp, sp, #48	; 0x30
 2004b38:	e8bd8070 	pop	{r4, r5, r6, pc}
 2004b3c:	e3a00000 	mov	r0, #0
 2004b40:	e12fff1e 	bx	lr
 2004b44:	e3e00000 	mvn	r0, #0
 2004b48:	eafffff1 	b	2004b14 <GeneratePage+0x114>

02004b4c <TimeMSBetween>:
 2004b4c:	e92d4370 	push	{r4, r5, r6, r8, r9, lr}
 2004b50:	e24dd010 	sub	sp, sp, #16
 2004b54:	e28dc010 	add	ip, sp, #16
 2004b58:	e3a06ffa 	mov	r6, #1000	; 0x3e8
 2004b5c:	e1cd83d0 	ldrd	r8, [sp, #48]	; 0x30
 2004b60:	e90c000f 	stmdb	ip, {r0, r1, r2, r3}
 2004b64:	e3a02ffa 	mov	r2, #1000	; 0x3e8
 2004b68:	e1cd40d0 	ldrd	r4, [sp]
 2004b6c:	e3a03000 	mov	r3, #0
 2004b70:	e1cd02d8 	ldrd	r0, [sp, #40]	; 0x28
 2004b74:	e0500004 	subs	r0, r0, r4
 2004b78:	e1cd40d8 	ldrd	r4, [sp, #8]
 2004b7c:	e0060096 	mul	r6, r6, r0
 2004b80:	e0580004 	subs	r0, r8, r4
 2004b84:	e0c91005 	sbc	r1, r9, r5
 2004b88:	eb001304 	bl	20097a0 <__aeabi_ldivmod>
 2004b8c:	e0860000 	add	r0, r6, r0
 2004b90:	e28dd010 	add	sp, sp, #16
 2004b94:	e8bd8370 	pop	{r4, r5, r6, r8, r9, pc}

02004b98 <GenericGetInputEvent>:
 2004b98:	e92d4070 	push	{r4, r5, r6, lr}
 2004b9c:	e24dd028 	sub	sp, sp, #40	; 0x28
 2004ba0:	e5904018 	ldr	r4, [r0, #24]
 2004ba4:	e1a05001 	mov	r5, r1
 2004ba8:	e1a0000d 	mov	r0, sp
 2004bac:	ebfff85b 	bl	2002d20 <GetInputEvent>
 2004bb0:	e250c000 	subs	ip, r0, #0
 2004bb4:	1a000020 	bne	2004c3c <GenericGetInputEvent+0xa4>
 2004bb8:	e59d3010 	ldr	r3, [sp, #16]
 2004bbc:	e3530001 	cmp	r3, #1
 2004bc0:	1a00001d 	bne	2004c3c <GenericGetInputEvent+0xa4>
 2004bc4:	e1a0e00d 	mov	lr, sp
 2004bc8:	e5946010 	ldr	r6, [r4, #16]
 2004bcc:	e8be000f 	ldm	lr!, {r0, r1, r2, r3}
 2004bd0:	e3560000 	cmp	r6, #0
 2004bd4:	e8a5000f 	stmia	r5!, {r0, r1, r2, r3}
 2004bd8:	e8be000f 	ldm	lr!, {r0, r1, r2, r3}
 2004bdc:	e8a5000f 	stmia	r5!, {r0, r1, r2, r3}
 2004be0:	e89e0003 	ldm	lr, {r0, r1}
 2004be4:	e8850003 	stm	r5, {r0, r1}
 2004be8:	0a000013 	beq	2004c3c <GenericGetInputEvent+0xa4>
 2004bec:	e59d1014 	ldr	r1, [sp, #20]
 2004bf0:	e2843014 	add	r3, r4, #20
 2004bf4:	e59d0018 	ldr	r0, [sp, #24]
 2004bf8:	e5132014 	ldr	r2, [r3, #-20]	; 0xffffffec
 2004bfc:	e1510002 	cmp	r1, r2
 2004c00:	ba000008 	blt	2004c28 <GenericGetInputEvent+0x90>
 2004c04:	e513200c 	ldr	r2, [r3, #-12]
 2004c08:	e1510002 	cmp	r1, r2
 2004c0c:	ca000005 	bgt	2004c28 <GenericGetInputEvent+0x90>
 2004c10:	e5132010 	ldr	r2, [r3, #-16]
 2004c14:	e1500002 	cmp	r0, r2
 2004c18:	ba000002 	blt	2004c28 <GenericGetInputEvent+0x90>
 2004c1c:	e5132008 	ldr	r2, [r3, #-8]
 2004c20:	e1500002 	cmp	r0, r2
 2004c24:	da000005 	ble	2004c40 <GenericGetInputEvent+0xa8>
 2004c28:	e2833014 	add	r3, r3, #20
 2004c2c:	e5132004 	ldr	r2, [r3, #-4]
 2004c30:	e28cc001 	add	ip, ip, #1
 2004c34:	e3520000 	cmp	r2, #0
 2004c38:	1affffee 	bne	2004bf8 <GenericGetInputEvent+0x60>
 2004c3c:	e3e0c000 	mvn	ip, #0
 2004c40:	e1a0000c 	mov	r0, ip
 2004c44:	e28dd028 	add	sp, sp, #40	; 0x28
 2004c48:	e8bd8070 	pop	{r4, r5, r6, pc}

02004c4c <GetPageCfg>:
 2004c4c:	e92d4010 	push	{r4, lr}
 2004c50:	e1a04000 	mov	r4, r0
 2004c54:	e2800004 	add	r0, r0, #4
 2004c58:	eb000809 	bl	2006c84 <GetSelectedDir>
 2004c5c:	e1a00004 	mov	r0, r4
 2004c60:	e8bd4010 	pop	{r4, lr}
 2004c64:	ea00042a 	b	2005d14 <GetIntervalTime>

02004c68 <PagesInit>:
 2004c68:	e92d4010 	push	{r4, lr}
 2004c6c:	eb00011d 	bl	20050e8 <MainPageInit>
 2004c70:	e1a04000 	mov	r4, r0
 2004c74:	eb0001fc 	bl	200546c <SettingPageInit>
 2004c78:	e1844000 	orr	r4, r4, r0
 2004c7c:	eb000429 	bl	2005d28 <IntervalPageInit>
 2004c80:	e1844000 	orr	r4, r4, r0
 2004c84:	eb000806 	bl	2006ca4 <BrowsePageInit>
 2004c88:	e1844000 	orr	r4, r4, r0
 2004c8c:	eb000904 	bl	20070a4 <AutoPageInit>
 2004c90:	e1844000 	orr	r4, r4, r0
 2004c94:	eb000c4a 	bl	2007dc4 <ManualPageInit>
 2004c98:	e1840000 	orr	r0, r4, r0
 2004c9c:	e8bd8010 	pop	{r4, pc}

02004ca0 <MainPageGetInputEvent>:
 2004ca0:	eaffffbc 	b	2004b98 <GenericGetInputEvent>

02004ca4 <ShowMainPage.constprop.0>:
 2004ca4:	e92d4ff0 	push	{r4, r5, r6, r7, r8, r9, sl, fp, lr}
 2004ca8:	e30c4274 	movw	r4, #49780	; 0xc274
 2004cac:	e3404201 	movt	r4, #513	; 0x201
 2004cb0:	e24dd014 	sub	sp, sp, #20
 2004cb4:	e30a0af4 	movw	r0, #43764	; 0xaaf4
 2004cb8:	e3400200 	movt	r0, #512	; 0x200
 2004cbc:	e5946018 	ldr	r6, [r4, #24]
 2004cc0:	ebffff46 	bl	20049e0 <ID>
 2004cc4:	e3a01001 	mov	r1, #1
 2004cc8:	ebfff310 	bl	2001910 <GetVideoMem>
 2004ccc:	e2505000 	subs	r5, r0, #0
 2004cd0:	0a000058 	beq	2004e38 <ShowMainPage.constprop.0+0x194>
 2004cd4:	e5963000 	ldr	r3, [r6]
 2004cd8:	e3530000 	cmp	r3, #0
 2004cdc:	0a000009 	beq	2004d08 <ShowMainPage.constprop.0+0x64>
 2004ce0:	e1a01005 	mov	r1, r5
 2004ce4:	e30c0274 	movw	r0, #49780	; 0xc274
 2004ce8:	e3400201 	movt	r0, #513	; 0x201
 2004cec:	ebffff43 	bl	2004a00 <GeneratePage>
 2004cf0:	e1a00005 	mov	r0, r5
 2004cf4:	ebfffa6a 	bl	20036a4 <FlushVideoMemToDev>
 2004cf8:	e1a00005 	mov	r0, r5
 2004cfc:	ebfff348 	bl	2001a24 <PutVideoMem>
 2004d00:	e28dd014 	add	sp, sp, #20
 2004d04:	e8bd8ff0 	pop	{r4, r5, r6, r7, r8, r9, sl, fp, pc}
 2004d08:	e28d200c 	add	r2, sp, #12
 2004d0c:	e28d1008 	add	r1, sp, #8
 2004d10:	e28d0004 	add	r0, sp, #4
 2004d14:	e5946018 	ldr	r6, [r4, #24]
 2004d18:	ebfff291 	bl	2001764 <GetDispResolution>
 2004d1c:	e59d2008 	ldr	r2, [sp, #8]
 2004d20:	e3068667 	movw	r8, #26215	; 0x6667
 2004d24:	e3468666 	movt	r8, #26214	; 0x6666
 2004d28:	e59d0004 	ldr	r0, [sp, #4]
 2004d2c:	e0c98892 	smull	r8, r9, r2, r8
 2004d30:	e1a02fc2 	asr	r2, r2, #31
 2004d34:	e59d100c 	ldr	r1, [sp, #12]
 2004d38:	e594b014 	ldr	fp, [r4, #20]
 2004d3c:	e5841010 	str	r1, [r4, #16]
 2004d40:	e062c0c9 	rsb	ip, r2, r9, asr #1
 2004d44:	e0622149 	rsb	r2, r2, r9, asr #2
 2004d48:	e08c3002 	add	r3, ip, r2
 2004d4c:	e5862004 	str	r2, [r6, #4]
 2004d50:	e1a0708c 	lsl	r7, ip, #1
 2004d54:	e2433001 	sub	r3, r3, #1
 2004d58:	e0400007 	sub	r0, r0, r7
 2004d5c:	e0439002 	sub	r9, r3, r2
 2004d60:	e586300c 	str	r3, [r6, #12]
 2004d64:	e0823003 	add	r3, r2, r3
 2004d68:	e0800fa0 	add	r0, r0, r0, lsr #31
 2004d6c:	e2833001 	add	r3, r3, #1
 2004d70:	e5863018 	str	r3, [r6, #24]
 2004d74:	e1a000c0 	asr	r0, r0, #1
 2004d78:	e5860000 	str	r0, [r6]
 2004d7c:	e0877000 	add	r7, r7, r0
 2004d80:	e5860028 	str	r0, [r6, #40]	; 0x28
 2004d84:	e2477001 	sub	r7, r7, #1
 2004d88:	e5867008 	str	r7, [r6, #8]
 2004d8c:	e047e000 	sub	lr, r7, r0
 2004d90:	e586701c 	str	r7, [r6, #28]
 2004d94:	e28ee001 	add	lr, lr, #1
 2004d98:	e5867030 	str	r7, [r6, #48]	; 0x30
 2004d9c:	e029ee99 	mla	r9, r9, lr, lr
 2004da0:	e0090991 	mul	r9, r1, r9
 2004da4:	e289a007 	add	sl, r9, #7
 2004da8:	e3590000 	cmp	r9, #0
 2004dac:	b1a0900a 	movlt	r9, sl
 2004db0:	e1a091c9 	asr	r9, r9, #3
 2004db4:	e159000b 	cmp	r9, fp
 2004db8:	c5849014 	strgt	r9, [r4, #20]
 2004dbc:	e5860014 	str	r0, [r6, #20]
 2004dc0:	c1a0b009 	movgt	fp, r9
 2004dc4:	e08c9003 	add	r9, ip, r3
 2004dc8:	e2499001 	sub	r9, r9, #1
 2004dcc:	e5869020 	str	r9, [r6, #32]
 2004dd0:	e0493003 	sub	r3, r9, r3
 2004dd4:	e0822009 	add	r2, r2, r9
 2004dd8:	e2822001 	add	r2, r2, #1
 2004ddc:	e586202c 	str	r2, [r6, #44]	; 0x2c
 2004de0:	e023ee93 	mla	r3, r3, lr, lr
 2004de4:	e08cc002 	add	ip, ip, r2
 2004de8:	e24cc001 	sub	ip, ip, #1
 2004dec:	e586c034 	str	ip, [r6, #52]	; 0x34
 2004df0:	e04cc002 	sub	ip, ip, r2
 2004df4:	e02eee9c 	mla	lr, ip, lr, lr
 2004df8:	e0030391 	mul	r3, r1, r3
 2004dfc:	e3530000 	cmp	r3, #0
 2004e00:	e283a007 	add	sl, r3, #7
 2004e04:	e0010e91 	mul	r1, r1, lr
 2004e08:	b1a0300a 	movlt	r3, sl
 2004e0c:	e1a031c3 	asr	r3, r3, #3
 2004e10:	e153000b 	cmp	r3, fp
 2004e14:	c5843014 	strgt	r3, [r4, #20]
 2004e18:	e281e007 	add	lr, r1, #7
 2004e1c:	c1a0b003 	movgt	fp, r3
 2004e20:	e3510000 	cmp	r1, #0
 2004e24:	b1a0100e 	movlt	r1, lr
 2004e28:	e1a011c1 	asr	r1, r1, #3
 2004e2c:	e151000b 	cmp	r1, fp
 2004e30:	c5841014 	strgt	r1, [r4, #20]
 2004e34:	eaffffa9 	b	2004ce0 <ShowMainPage.constprop.0+0x3c>
 2004e38:	e30a0f30 	movw	r0, #44848	; 0xaf30
 2004e3c:	e3400200 	movt	r0, #512	; 0x200
 2004e40:	ebfff88a 	bl	2003070 <DebugPrint>
 2004e44:	e28dd014 	add	sp, sp, #20
 2004e48:	e8bd8ff0 	pop	{r4, r5, r6, r7, r8, r9, sl, fp, pc}

02004e4c <MainPageRun>:
 2004e4c:	e92d47f0 	push	{r4, r5, r6, r7, r8, r9, sl, lr}
 2004e50:	e24ddf4e 	sub	sp, sp, #312	; 0x138
 2004e54:	e3a02f41 	mov	r2, #260	; 0x104
 2004e58:	e3a01000 	mov	r1, #0
 2004e5c:	e28d0034 	add	r0, sp, #52	; 0x34
 2004e60:	e59fa27c 	ldr	sl, [pc, #636]	; 20050e4 <MainPageRun+0x298>
 2004e64:	ebfff0af 	bl	2001128 <memset@plt>
 2004e68:	e30a0af4 	movw	r0, #43764	; 0xaaf4
 2004e6c:	e3400200 	movt	r0, #512	; 0x200
 2004e70:	e30a7a40 	movw	r7, #43584	; 0xaa40
 2004e74:	ebfffed9 	bl	20049e0 <ID>
 2004e78:	e30a6f54 	movw	r6, #44884	; 0xaf54
 2004e7c:	e24a801c 	sub	r8, sl, #28
 2004e80:	e3407200 	movt	r7, #512	; 0x200
 2004e84:	e3e05000 	mvn	r5, #0
 2004e88:	e3406200 	movt	r6, #512	; 0x200
 2004e8c:	e3a09000 	mov	r9, #0
 2004e90:	e58d0034 	str	r0, [sp, #52]	; 0x34
 2004e94:	ebffff82 	bl	2004ca4 <ShowMainPage.constprop.0>
 2004e98:	e28d1008 	add	r1, sp, #8
 2004e9c:	e1a00008 	mov	r0, r8
 2004ea0:	ebffff3c 	bl	2004b98 <GenericGetInputEvent>
 2004ea4:	e59d1028 	ldr	r1, [sp, #40]	; 0x28
 2004ea8:	e3a030be 	mov	r3, #190	; 0xbe
 2004eac:	e1a02007 	mov	r2, r7
 2004eb0:	e58d1004 	str	r1, [sp, #4]
 2004eb4:	e1a01006 	mov	r1, r6
 2004eb8:	e1a04000 	mov	r4, r0
 2004ebc:	e30a0f60 	movw	r0, #44896	; 0xaf60
 2004ec0:	e58d4000 	str	r4, [sp]
 2004ec4:	e3400200 	movt	r0, #512	; 0x200
 2004ec8:	ebfff0de 	bl	2001248 <printf@plt>
 2004ecc:	e59d3028 	ldr	r3, [sp, #40]	; 0x28
 2004ed0:	e3530000 	cmp	r3, #0
 2004ed4:	1a00001d 	bne	2004f50 <MainPageRun+0x104>
 2004ed8:	e3590000 	cmp	r9, #0
 2004edc:	0affffed 	beq	2004e98 <MainPageRun+0x4c>
 2004ee0:	e3a00014 	mov	r0, #20
 2004ee4:	e020a590 	mla	r0, r0, r5, sl
 2004ee8:	ebfffc0c 	bl	2003f20 <ReleaseButton>
 2004eec:	e1550004 	cmp	r5, r4
 2004ef0:	0a000067 	beq	2005094 <MainPageRun+0x248>
 2004ef4:	e28d1008 	add	r1, sp, #8
 2004ef8:	e1a00008 	mov	r0, r8
 2004efc:	ebffff25 	bl	2004b98 <GenericGetInputEvent>
 2004f00:	e59d1028 	ldr	r1, [sp, #40]	; 0x28
 2004f04:	e3a030be 	mov	r3, #190	; 0xbe
 2004f08:	e1a02007 	mov	r2, r7
 2004f0c:	e58d1004 	str	r1, [sp, #4]
 2004f10:	e1a01006 	mov	r1, r6
 2004f14:	e1a05000 	mov	r5, r0
 2004f18:	e30a0f60 	movw	r0, #44896	; 0xaf60
 2004f1c:	e58d5000 	str	r5, [sp]
 2004f20:	e3400200 	movt	r0, #512	; 0x200
 2004f24:	ebfff0c7 	bl	2001248 <printf@plt>
 2004f28:	e59d3028 	ldr	r3, [sp, #40]	; 0x28
 2004f2c:	e3530000 	cmp	r3, #0
 2004f30:	0a00000c 	beq	2004f68 <MainPageRun+0x11c>
 2004f34:	e3750001 	cmn	r5, #1
 2004f38:	0a00000a 	beq	2004f68 <MainPageRun+0x11c>
 2004f3c:	e3a00014 	mov	r0, #20
 2004f40:	e3a09001 	mov	r9, #1
 2004f44:	e020a590 	mla	r0, r0, r5, sl
 2004f48:	ebfffbf5 	bl	2003f24 <PressButton>
 2004f4c:	eaffffd1 	b	2004e98 <MainPageRun+0x4c>
 2004f50:	e3740001 	cmn	r4, #1
 2004f54:	0affffcf 	beq	2004e98 <MainPageRun+0x4c>
 2004f58:	e3590000 	cmp	r9, #0
 2004f5c:	1affffcd 	bne	2004e98 <MainPageRun+0x4c>
 2004f60:	e1a05004 	mov	r5, r4
 2004f64:	eafffff4 	b	2004f3c <MainPageRun+0xf0>
 2004f68:	e28d1008 	add	r1, sp, #8
 2004f6c:	e1a00008 	mov	r0, r8
 2004f70:	ebffff08 	bl	2004b98 <GenericGetInputEvent>
 2004f74:	e59d1028 	ldr	r1, [sp, #40]	; 0x28
 2004f78:	e3a030be 	mov	r3, #190	; 0xbe
 2004f7c:	e1a02007 	mov	r2, r7
 2004f80:	e58d1004 	str	r1, [sp, #4]
 2004f84:	e1a01006 	mov	r1, r6
 2004f88:	e1a05000 	mov	r5, r0
 2004f8c:	e30a0f60 	movw	r0, #44896	; 0xaf60
 2004f90:	e58d5000 	str	r5, [sp]
 2004f94:	e3400200 	movt	r0, #512	; 0x200
 2004f98:	ebfff0aa 	bl	2001248 <printf@plt>
 2004f9c:	e59d3028 	ldr	r3, [sp, #40]	; 0x28
 2004fa0:	e3530000 	cmp	r3, #0
 2004fa4:	0a000001 	beq	2004fb0 <MainPageRun+0x164>
 2004fa8:	e3750001 	cmn	r5, #1
 2004fac:	1affffe2 	bne	2004f3c <MainPageRun+0xf0>
 2004fb0:	e28d1008 	add	r1, sp, #8
 2004fb4:	e1a00008 	mov	r0, r8
 2004fb8:	ebfffef6 	bl	2004b98 <GenericGetInputEvent>
 2004fbc:	e59d1028 	ldr	r1, [sp, #40]	; 0x28
 2004fc0:	e3a030be 	mov	r3, #190	; 0xbe
 2004fc4:	e1a02007 	mov	r2, r7
 2004fc8:	e58d1004 	str	r1, [sp, #4]
 2004fcc:	e1a01006 	mov	r1, r6
 2004fd0:	e1a05000 	mov	r5, r0
 2004fd4:	e30a0f60 	movw	r0, #44896	; 0xaf60
 2004fd8:	e58d5000 	str	r5, [sp]
 2004fdc:	e3400200 	movt	r0, #512	; 0x200
 2004fe0:	ebfff098 	bl	2001248 <printf@plt>
 2004fe4:	e59d3028 	ldr	r3, [sp, #40]	; 0x28
 2004fe8:	e3530000 	cmp	r3, #0
 2004fec:	1a000014 	bne	2005044 <MainPageRun+0x1f8>
 2004ff0:	e28d1008 	add	r1, sp, #8
 2004ff4:	e1a00008 	mov	r0, r8
 2004ff8:	ebfffee6 	bl	2004b98 <GenericGetInputEvent>
 2004ffc:	e59d1028 	ldr	r1, [sp, #40]	; 0x28
 2005000:	e3a030be 	mov	r3, #190	; 0xbe
 2005004:	e1a02007 	mov	r2, r7
 2005008:	e58d1004 	str	r1, [sp, #4]
 200500c:	e1a01006 	mov	r1, r6
 2005010:	e1a05000 	mov	r5, r0
 2005014:	e30a0f60 	movw	r0, #44896	; 0xaf60
 2005018:	e58d5000 	str	r5, [sp]
 200501c:	e3400200 	movt	r0, #512	; 0x200
 2005020:	ebfff088 	bl	2001248 <printf@plt>
 2005024:	e59d9028 	ldr	r9, [sp, #40]	; 0x28
 2005028:	e3590000 	cmp	r9, #0
 200502c:	03e05000 	mvneq	r5, #0
 2005030:	0affff98 	beq	2004e98 <MainPageRun+0x4c>
 2005034:	e3750001 	cmn	r5, #1
 2005038:	1affffbf 	bne	2004f3c <MainPageRun+0xf0>
 200503c:	e3a09000 	mov	r9, #0
 2005040:	eaffff94 	b	2004e98 <MainPageRun+0x4c>
 2005044:	e3750001 	cmn	r5, #1
 2005048:	1affffbb 	bne	2004f3c <MainPageRun+0xf0>
 200504c:	e28d1008 	add	r1, sp, #8
 2005050:	e1a00008 	mov	r0, r8
 2005054:	ebfffecf 	bl	2004b98 <GenericGetInputEvent>
 2005058:	e59d1028 	ldr	r1, [sp, #40]	; 0x28
 200505c:	e3a030be 	mov	r3, #190	; 0xbe
 2005060:	e1a02007 	mov	r2, r7
 2005064:	e58d1004 	str	r1, [sp, #4]
 2005068:	e1a01006 	mov	r1, r6
 200506c:	e1a04000 	mov	r4, r0
 2005070:	e30a0f60 	movw	r0, #44896	; 0xaf60
 2005074:	e58d4000 	str	r4, [sp]
 2005078:	e3400200 	movt	r0, #512	; 0x200
 200507c:	ebfff071 	bl	2001248 <printf@plt>
 2005080:	e59d9028 	ldr	r9, [sp, #40]	; 0x28
 2005084:	e3590000 	cmp	r9, #0
 2005088:	0affff82 	beq	2004e98 <MainPageRun+0x4c>
 200508c:	e1a05004 	mov	r5, r4
 2005090:	eaffffe7 	b	2005034 <MainPageRun+0x1e8>
 2005094:	e3550001 	cmp	r5, #1
 2005098:	0a00000b 	beq	20050cc <MainPageRun+0x280>
 200509c:	e3550002 	cmp	r5, #2
 20050a0:	0a00000c 	beq	20050d8 <MainPageRun+0x28c>
 20050a4:	e3550000 	cmp	r5, #0
 20050a8:	1affff91 	bne	2004ef4 <MainPageRun+0xa8>
 20050ac:	e30a0f94 	movw	r0, #44948	; 0xaf94
 20050b0:	e3400200 	movt	r0, #512	; 0x200
 20050b4:	ebfffe37 	bl	2004998 <Page>
 20050b8:	e5903004 	ldr	r3, [r0, #4]
 20050bc:	e28d0034 	add	r0, sp, #52	; 0x34
 20050c0:	e12fff33 	blx	r3
 20050c4:	ebfffef6 	bl	2004ca4 <ShowMainPage.constprop.0>
 20050c8:	eaffff89 	b	2004ef4 <MainPageRun+0xa8>
 20050cc:	e30a0f9c 	movw	r0, #44956	; 0xaf9c
 20050d0:	e3400200 	movt	r0, #512	; 0x200
 20050d4:	eafffff6 	b	20050b4 <MainPageRun+0x268>
 20050d8:	e30a0fa4 	movw	r0, #44964	; 0xafa4
 20050dc:	e3400200 	movt	r0, #512	; 0x200
 20050e0:	eafffff3 	b	20050b4 <MainPageRun+0x268>
 20050e4:	0201c290 	andeq	ip, r1, #144, 4

020050e8 <MainPageInit>:
 20050e8:	e59f0000 	ldr	r0, [pc]	; 20050f0 <MainPageInit+0x8>
 20050ec:	eafffe07 	b	2004910 <RegisterPageAction>
 20050f0:	0201c2e0 	andeq	ip, r1, #224, 4

020050f4 <SettingPageGetInputEvent>:
 20050f4:	eafffea7 	b	2004b98 <GenericGetInputEvent>

020050f8 <ShowSettingPage.constprop.0>:
 20050f8:	e92d4ff0 	push	{r4, r5, r6, r7, r8, r9, sl, fp, lr}
 20050fc:	e30c42f4 	movw	r4, #49908	; 0xc2f4
 2005100:	e3404201 	movt	r4, #513	; 0x201
 2005104:	e24dd01c 	sub	sp, sp, #28
 2005108:	e30a0fa4 	movw	r0, #44964	; 0xafa4
 200510c:	e3400200 	movt	r0, #512	; 0x200
 2005110:	e5946018 	ldr	r6, [r4, #24]
 2005114:	ebfffe31 	bl	20049e0 <ID>
 2005118:	e3a01001 	mov	r1, #1
 200511c:	ebfff1fb 	bl	2001910 <GetVideoMem>
 2005120:	e2505000 	subs	r5, r0, #0
 2005124:	0a000062 	beq	20052b4 <ShowSettingPage.constprop.0+0x1bc>
 2005128:	e5963000 	ldr	r3, [r6]
 200512c:	e3530000 	cmp	r3, #0
 2005130:	0a000009 	beq	200515c <ShowSettingPage.constprop.0+0x64>
 2005134:	e1a01005 	mov	r1, r5
 2005138:	e30c02f4 	movw	r0, #49908	; 0xc2f4
 200513c:	e3400201 	movt	r0, #513	; 0x201
 2005140:	ebfffe2e 	bl	2004a00 <GeneratePage>
 2005144:	e1a00005 	mov	r0, r5
 2005148:	ebfff955 	bl	20036a4 <FlushVideoMemToDev>
 200514c:	e1a00005 	mov	r0, r5
 2005150:	ebfff233 	bl	2001a24 <PutVideoMem>
 2005154:	e28dd01c 	add	sp, sp, #28
 2005158:	e8bd8ff0 	pop	{r4, r5, r6, r7, r8, r9, sl, fp, pc}
 200515c:	e28d2014 	add	r2, sp, #20
 2005160:	e28d1010 	add	r1, sp, #16
 2005164:	e28d000c 	add	r0, sp, #12
 2005168:	e5946018 	ldr	r6, [r4, #24]
 200516c:	ebfff17c 	bl	2001764 <GetDispResolution>
 2005170:	e59d3010 	ldr	r3, [sp, #16]
 2005174:	e3060667 	movw	r0, #26215	; 0x6667
 2005178:	e3460666 	movt	r0, #26214	; 0x6666
 200517c:	e59d200c 	ldr	r2, [sp, #12]
 2005180:	e0c10093 	smull	r0, r1, r3, r0
 2005184:	e1a03fc3 	asr	r3, r3, #31
 2005188:	e59db014 	ldr	fp, [sp, #20]
 200518c:	e594e014 	ldr	lr, [r4, #20]
 2005190:	e584b010 	str	fp, [r4, #16]
 2005194:	e063c0c1 	rsb	ip, r3, r1, asr #1
 2005198:	e0633141 	rsb	r3, r3, r1, asr #2
 200519c:	e08c7003 	add	r7, ip, r3
 20051a0:	e58db004 	str	fp, [sp, #4]
 20051a4:	e1a0908c 	lsl	r9, ip, #1
 20051a8:	e2477001 	sub	r7, r7, #1
 20051ac:	e0421009 	sub	r1, r2, r9
 20051b0:	e0478003 	sub	r8, r7, r3
 20051b4:	e586700c 	str	r7, [r6, #12]
 20051b8:	e0837007 	add	r7, r3, r7
 20051bc:	e081afa1 	add	sl, r1, r1, lsr #31
 20051c0:	e5863004 	str	r3, [r6, #4]
 20051c4:	e59d0004 	ldr	r0, [sp, #4]
 20051c8:	e08c1001 	add	r1, ip, r1
 20051cc:	e1a0a0ca 	asr	sl, sl, #1
 20051d0:	e586a000 	str	sl, [r6]
 20051d4:	e089900a 	add	r9, r9, sl
 20051d8:	e0811fa1 	add	r1, r1, r1, lsr #31
 20051dc:	e2499001 	sub	r9, r9, #1
 20051e0:	e5869008 	str	r9, [r6, #8]
 20051e4:	e049200a 	sub	r2, r9, sl
 20051e8:	e586901c 	str	r9, [r6, #28]
 20051ec:	e2822001 	add	r2, r2, #1
 20051f0:	e0282298 	mla	r8, r8, r2, r2
 20051f4:	e008089b 	mul	r8, fp, r8
 20051f8:	e3580000 	cmp	r8, #0
 20051fc:	e288b007 	add	fp, r8, #7
 2005200:	b1a0800b 	movlt	r8, fp
 2005204:	e1a081c8 	asr	r8, r8, #3
 2005208:	e158000e 	cmp	r8, lr
 200520c:	c5848014 	strgt	r8, [r4, #20]
 2005210:	e586a014 	str	sl, [r6, #20]
 2005214:	c1a0e008 	movgt	lr, r8
 2005218:	e2878001 	add	r8, r7, #1
 200521c:	e08c7008 	add	r7, ip, r8
 2005220:	e5868018 	str	r8, [r6, #24]
 2005224:	e2477001 	sub	r7, r7, #1
 2005228:	e5867020 	str	r7, [r6, #32]
 200522c:	e0478008 	sub	r8, r7, r8
 2005230:	e0833007 	add	r3, r3, r7
 2005234:	e2833001 	add	r3, r3, #1
 2005238:	e586302c 	str	r3, [r6, #44]	; 0x2c
 200523c:	e0222298 	mla	r2, r8, r2, r2
 2005240:	e0020290 	mul	r2, r0, r2
 2005244:	e2828007 	add	r8, r2, #7
 2005248:	e3520000 	cmp	r2, #0
 200524c:	b1a02008 	movlt	r2, r8
 2005250:	e08c8003 	add	r8, ip, r3
 2005254:	e1a021c2 	asr	r2, r2, #3
 2005258:	e2488001 	sub	r8, r8, #1
 200525c:	e152000e 	cmp	r2, lr
 2005260:	c5842014 	strgt	r2, [r4, #20]
 2005264:	e0483003 	sub	r3, r8, r3
 2005268:	e5868034 	str	r8, [r6, #52]	; 0x34
 200526c:	c1a0e002 	movgt	lr, r2
 2005270:	e1a020c1 	asr	r2, r1, #1
 2005274:	e08cc002 	add	ip, ip, r2
 2005278:	e2833001 	add	r3, r3, #1
 200527c:	e24cc001 	sub	ip, ip, #1
 2005280:	e5862028 	str	r2, [r6, #40]	; 0x28
 2005284:	e04c2002 	sub	r2, ip, r2
 2005288:	e586c030 	str	ip, [r6, #48]	; 0x30
 200528c:	e0223392 	mla	r2, r2, r3, r3
 2005290:	e59d3004 	ldr	r3, [sp, #4]
 2005294:	e0000293 	mul	r0, r3, r2
 2005298:	e3500000 	cmp	r0, #0
 200529c:	e2802007 	add	r2, r0, #7
 20052a0:	b1a00002 	movlt	r0, r2
 20052a4:	e1a001c0 	asr	r0, r0, #3
 20052a8:	e150000e 	cmp	r0, lr
 20052ac:	c5840014 	strgt	r0, [r4, #20]
 20052b0:	eaffff9f 	b	2005134 <ShowSettingPage.constprop.0+0x3c>
 20052b4:	e30a0fdc 	movw	r0, #45020	; 0xafdc
 20052b8:	e3400200 	movt	r0, #512	; 0x200
 20052bc:	ebfff76b 	bl	2003070 <DebugPrint>
 20052c0:	e28dd01c 	add	sp, sp, #28
 20052c4:	e8bd8ff0 	pop	{r4, r5, r6, r7, r8, r9, sl, fp, pc}

020052c8 <SettingPageRun>:
 20052c8:	e92d47f0 	push	{r4, r5, r6, r7, r8, r9, sl, lr}
 20052cc:	e30a0fa4 	movw	r0, #44964	; 0xafa4
 20052d0:	e24dde13 	sub	sp, sp, #304	; 0x130
 20052d4:	e3400200 	movt	r0, #512	; 0x200
 20052d8:	ebfffdc0 	bl	20049e0 <ID>
 20052dc:	e59f8184 	ldr	r8, [pc, #388]	; 2005468 <SettingPageRun+0x1a0>
 20052e0:	e30ba004 	movw	sl, #45060	; 0xb004
 20052e4:	e30a9f94 	movw	r9, #44948	; 0xaf94
 20052e8:	e248501c 	sub	r5, r8, #28
 20052ec:	e340a200 	movt	sl, #512	; 0x200
 20052f0:	e3409200 	movt	r9, #512	; 0x200
 20052f4:	e3e04000 	mvn	r4, #0
 20052f8:	e3a06000 	mov	r6, #0
 20052fc:	e58d002c 	str	r0, [sp, #44]	; 0x2c
 2005300:	ebffff7c 	bl	20050f8 <ShowSettingPage.constprop.0>
 2005304:	e1a0100d 	mov	r1, sp
 2005308:	e1a00005 	mov	r0, r5
 200530c:	ebfffe21 	bl	2004b98 <GenericGetInputEvent>
 2005310:	e59d3020 	ldr	r3, [sp, #32]
 2005314:	e3530000 	cmp	r3, #0
 2005318:	e1a07000 	mov	r7, r0
 200531c:	1a000014 	bne	2005374 <SettingPageRun+0xac>
 2005320:	e3560000 	cmp	r6, #0
 2005324:	0afffff6 	beq	2005304 <SettingPageRun+0x3c>
 2005328:	e3a00014 	mov	r0, #20
 200532c:	e0208490 	mla	r0, r0, r4, r8
 2005330:	ebfffafa 	bl	2003f20 <ReleaseButton>
 2005334:	e1540007 	cmp	r4, r7
 2005338:	0a000039 	beq	2005424 <SettingPageRun+0x15c>
 200533c:	e1a0100d 	mov	r1, sp
 2005340:	e1a00005 	mov	r0, r5
 2005344:	ebfffe13 	bl	2004b98 <GenericGetInputEvent>
 2005348:	e59d3020 	ldr	r3, [sp, #32]
 200534c:	e3530000 	cmp	r3, #0
 2005350:	e1a04000 	mov	r4, r0
 2005354:	0a00000c 	beq	200538c <SettingPageRun+0xc4>
 2005358:	e3700001 	cmn	r0, #1
 200535c:	0a00000a 	beq	200538c <SettingPageRun+0xc4>
 2005360:	e3a00014 	mov	r0, #20
 2005364:	e3a06001 	mov	r6, #1
 2005368:	e0208490 	mla	r0, r0, r4, r8
 200536c:	ebfffaec 	bl	2003f24 <PressButton>
 2005370:	eaffffe3 	b	2005304 <SettingPageRun+0x3c>
 2005374:	e3700001 	cmn	r0, #1
 2005378:	0affffe1 	beq	2005304 <SettingPageRun+0x3c>
 200537c:	e3560000 	cmp	r6, #0
 2005380:	1affffdf 	bne	2005304 <SettingPageRun+0x3c>
 2005384:	e1a04000 	mov	r4, r0
 2005388:	eafffff4 	b	2005360 <SettingPageRun+0x98>
 200538c:	e1a0100d 	mov	r1, sp
 2005390:	e1a00005 	mov	r0, r5
 2005394:	ebfffdff 	bl	2004b98 <GenericGetInputEvent>
 2005398:	e59d3020 	ldr	r3, [sp, #32]
 200539c:	e3530000 	cmp	r3, #0
 20053a0:	e1a04000 	mov	r4, r0
 20053a4:	0a000001 	beq	20053b0 <SettingPageRun+0xe8>
 20053a8:	e3700001 	cmn	r0, #1
 20053ac:	1affffeb 	bne	2005360 <SettingPageRun+0x98>
 20053b0:	e1a0100d 	mov	r1, sp
 20053b4:	e1a00005 	mov	r0, r5
 20053b8:	ebfffdf6 	bl	2004b98 <GenericGetInputEvent>
 20053bc:	e59d3020 	ldr	r3, [sp, #32]
 20053c0:	e3530000 	cmp	r3, #0
 20053c4:	e1a04000 	mov	r4, r0
 20053c8:	1a00000b 	bne	20053fc <SettingPageRun+0x134>
 20053cc:	e1a0100d 	mov	r1, sp
 20053d0:	e1a00005 	mov	r0, r5
 20053d4:	ebfffdef 	bl	2004b98 <GenericGetInputEvent>
 20053d8:	e59d6020 	ldr	r6, [sp, #32]
 20053dc:	e3560000 	cmp	r6, #0
 20053e0:	e1a04000 	mov	r4, r0
 20053e4:	03e04000 	mvneq	r4, #0
 20053e8:	0affffc5 	beq	2005304 <SettingPageRun+0x3c>
 20053ec:	e3740001 	cmn	r4, #1
 20053f0:	1affffda 	bne	2005360 <SettingPageRun+0x98>
 20053f4:	e3a06000 	mov	r6, #0
 20053f8:	eaffffc1 	b	2005304 <SettingPageRun+0x3c>
 20053fc:	e3700001 	cmn	r0, #1
 2005400:	1affffd6 	bne	2005360 <SettingPageRun+0x98>
 2005404:	e1a0100d 	mov	r1, sp
 2005408:	e1a00005 	mov	r0, r5
 200540c:	ebfffde1 	bl	2004b98 <GenericGetInputEvent>
 2005410:	e59d6020 	ldr	r6, [sp, #32]
 2005414:	e3560000 	cmp	r6, #0
 2005418:	0affffb9 	beq	2005304 <SettingPageRun+0x3c>
 200541c:	e1a04000 	mov	r4, r0
 2005420:	eafffff1 	b	20053ec <SettingPageRun+0x124>
 2005424:	e3540001 	cmp	r4, #1
 2005428:	0a00000a 	beq	2005458 <SettingPageRun+0x190>
 200542c:	e3540002 	cmp	r4, #2
 2005430:	0a00000a 	beq	2005460 <SettingPageRun+0x198>
 2005434:	e3540000 	cmp	r4, #0
 2005438:	1affffbf 	bne	200533c <SettingPageRun+0x74>
 200543c:	e1a00009 	mov	r0, r9
 2005440:	ebfffd54 	bl	2004998 <Page>
 2005444:	e5903004 	ldr	r3, [r0, #4]
 2005448:	e28d002c 	add	r0, sp, #44	; 0x2c
 200544c:	e12fff33 	blx	r3
 2005450:	ebffff28 	bl	20050f8 <ShowSettingPage.constprop.0>
 2005454:	eaffffb8 	b	200533c <SettingPageRun+0x74>
 2005458:	e1a0000a 	mov	r0, sl
 200545c:	eafffff7 	b	2005440 <SettingPageRun+0x178>
 2005460:	e28dde13 	add	sp, sp, #304	; 0x130
 2005464:	e8bd87f0 	pop	{r4, r5, r6, r7, r8, r9, sl, pc}
 2005468:	0201c310 	andeq	ip, r1, #16, 6	; 0x40000000

0200546c <SettingPageInit>:
 200546c:	e59f0000 	ldr	r0, [pc]	; 2005474 <SettingPageInit+0x8>
 2005470:	eafffd26 	b	2004910 <RegisterPageAction>
 2005474:	0201c360 	andeq	ip, r1, #96, 6	; 0x80000001

02005478 <IntervalPageGetInputEvent>:
 2005478:	eafffdc6 	b	2004b98 <GenericGetInputEvent>

0200547c <GenerateIntervalPageSpecialIcon>:
 200547c:	e92d40f0 	push	{r4, r5, r6, r7, lr}
 2005480:	e30c4a5c 	movw	r4, #51804	; 0xca5c
 2005484:	e3404201 	movt	r4, #513	; 0x201
 2005488:	e1a05000 	mov	r5, r0
 200548c:	e24dd014 	sub	sp, sp, #20
 2005490:	e1a07001 	mov	r7, r1
 2005494:	e594000c 	ldr	r0, [r4, #12]
 2005498:	e5943004 	ldr	r3, [r4, #4]
 200549c:	e0400003 	sub	r0, r0, r3
 20054a0:	ebfff4a9 	bl	200274c <SetFontSize>
 20054a4:	e355003b 	cmp	r5, #59	; 0x3b
 20054a8:	ca00000c 	bgt	20054e0 <GenerateIntervalPageSpecialIcon+0x64>
 20054ac:	e28d600c 	add	r6, sp, #12
 20054b0:	e1a03005 	mov	r3, r5
 20054b4:	e3a01003 	mov	r1, #3
 20054b8:	e30b203c 	movw	r2, #45116	; 0xb03c
 20054bc:	e1a00006 	mov	r0, r6
 20054c0:	e3402200 	movt	r2, #512	; 0x200
 20054c4:	ebffef0e 	bl	2001104 <snprintf@plt>
 20054c8:	e1c420d8 	ldrd	r2, [r4, #8]
 20054cc:	e1c400d0 	ldrd	r0, [r4]
 20054d0:	e1cd60f0 	strd	r6, [sp]
 20054d4:	ebfff93f 	bl	20039d8 <MergerStringToCenterOfRectangleInVideoMem>
 20054d8:	e28dd014 	add	sp, sp, #20
 20054dc:	e8bd80f0 	pop	{r4, r5, r6, r7, pc}
 20054e0:	e3e00000 	mvn	r0, #0
 20054e4:	eafffffb 	b	20054d8 <GenerateIntervalPageSpecialIcon+0x5c>

020054e8 <IntervalPageRun>:
 20054e8:	e92d4ff0 	push	{r4, r5, r6, r7, r8, r9, sl, fp, lr}
 20054ec:	e30c4374 	movw	r4, #50036	; 0xc374
 20054f0:	e24dd09c 	sub	sp, sp, #156	; 0x9c
 20054f4:	e3404201 	movt	r4, #513	; 0x201
 20054f8:	e58d4014 	str	r4, [sp, #20]
 20054fc:	e594a000 	ldr	sl, [r4]
 2005500:	ebfff14d 	bl	2001a3c <GetDevVideoMem>
 2005504:	e3a02000 	mov	r2, #0
 2005508:	e3a03000 	mov	r3, #0
 200550c:	e594401c 	ldr	r4, [r4, #28]
 2005510:	e1cd27f0 	strd	r2, [sp, #112]	; 0x70
 2005514:	e1cd27f8 	strd	r2, [sp, #120]	; 0x78
 2005518:	e58d0018 	str	r0, [sp, #24]
 200551c:	e30b0004 	movw	r0, #45060	; 0xb004
 2005520:	e3400200 	movt	r0, #512	; 0x200
 2005524:	ebfffd2d 	bl	20049e0 <ID>
 2005528:	e3a01001 	mov	r1, #1
 200552c:	ebfff0f7 	bl	2001910 <GetVideoMem>
 2005530:	e2506000 	subs	r6, r0, #0
 2005534:	0a0001e9 	beq	2005ce0 <IntervalPageRun+0x7f8>
 2005538:	e5943000 	ldr	r3, [r4]
 200553c:	e28d4048 	add	r4, sp, #72	; 0x48
 2005540:	e3530000 	cmp	r3, #0
 2005544:	0a000108 	beq	200596c <IntervalPageRun+0x484>
 2005548:	e1a01006 	mov	r1, r6
 200554c:	e59f07b8 	ldr	r0, [pc, #1976]	; 2005d0c <IntervalPageRun+0x824>
 2005550:	ebfffd2a 	bl	2004a00 <GeneratePage>
 2005554:	e59d3014 	ldr	r3, [sp, #20]
 2005558:	e1a01006 	mov	r1, r6
 200555c:	e5930000 	ldr	r0, [r3]
 2005560:	ebffffc5 	bl	200547c <GenerateIntervalPageSpecialIcon>
 2005564:	e3500000 	cmp	r0, #0
 2005568:	1a0000fb 	bne	200595c <IntervalPageRun+0x474>
 200556c:	e1a00006 	mov	r0, r6
 2005570:	ebfff84b 	bl	20036a4 <FlushVideoMemToDev>
 2005574:	e1a00006 	mov	r0, r6
 2005578:	ebfff129 	bl	2001a24 <PutVideoMem>
 200557c:	e3a03000 	mov	r3, #0
 2005580:	e58d3068 	str	r3, [sp, #104]	; 0x68
 2005584:	e1a09003 	mov	r9, r3
 2005588:	e1a06003 	mov	r6, r3
 200558c:	e59f377c 	ldr	r3, [pc, #1916]	; 2005d10 <IntervalPageRun+0x828>
 2005590:	e3e07000 	mvn	r7, #0
 2005594:	e243801c 	sub	r8, r3, #28
 2005598:	e1a01004 	mov	r1, r4
 200559c:	e1a00008 	mov	r0, r8
 20055a0:	ebfffd7c 	bl	2004b98 <GenericGetInputEvent>
 20055a4:	e59db068 	ldr	fp, [sp, #104]	; 0x68
 20055a8:	e35b0000 	cmp	fp, #0
 20055ac:	e1a05000 	mov	r5, r0
 20055b0:	1a000058 	bne	2005718 <IntervalPageRun+0x230>
 20055b4:	e3560000 	cmp	r6, #0
 20055b8:	0afffff6 	beq	2005598 <IntervalPageRun+0xb0>
 20055bc:	e59f374c 	ldr	r3, [pc, #1868]	; 2005d10 <IntervalPageRun+0x828>
 20055c0:	e3a00014 	mov	r0, #20
 20055c4:	e0203790 	mla	r0, r0, r7, r3
 20055c8:	ebfffa54 	bl	2003f20 <ReleaseButton>
 20055cc:	e1570005 	cmp	r7, r5
 20055d0:	0a0000ae 	beq	2005890 <IntervalPageRun+0x3a8>
 20055d4:	e1a01004 	mov	r1, r4
 20055d8:	e1a00008 	mov	r0, r8
 20055dc:	ebfffd6d 	bl	2004b98 <GenericGetInputEvent>
 20055e0:	e59d9068 	ldr	r9, [sp, #104]	; 0x68
 20055e4:	e3590000 	cmp	r9, #0
 20055e8:	e1a05000 	mov	r5, r0
 20055ec:	0a000066 	beq	200578c <IntervalPageRun+0x2a4>
 20055f0:	e3700001 	cmn	r0, #1
 20055f4:	0a0000b8 	beq	20058dc <IntervalPageRun+0x3f4>
 20055f8:	e3500001 	cmp	r0, #1
 20055fc:	1a0000d4 	bne	2005954 <IntervalPageRun+0x46c>
 2005600:	e1a01004 	mov	r1, r4
 2005604:	e1a00008 	mov	r0, r8
 2005608:	ebfffd62 	bl	2004b98 <GenericGetInputEvent>
 200560c:	e59d9068 	ldr	r9, [sp, #104]	; 0x68
 2005610:	e3590000 	cmp	r9, #0
 2005614:	e1a05000 	mov	r5, r0
 2005618:	1a0000ba 	bne	2005908 <IntervalPageRun+0x420>
 200561c:	e1a01004 	mov	r1, r4
 2005620:	e1a00008 	mov	r0, r8
 2005624:	ebfffd5b 	bl	2004b98 <GenericGetInputEvent>
 2005628:	e59d6068 	ldr	r6, [sp, #104]	; 0x68
 200562c:	e3560000 	cmp	r6, #0
 2005630:	11a06009 	movne	r6, r9
 2005634:	13e07000 	mvnne	r7, #0
 2005638:	e1a05000 	mov	r5, r0
 200563c:	1a000035 	bne	2005718 <IntervalPageRun+0x230>
 2005640:	e1a09006 	mov	r9, r6
 2005644:	e3e07000 	mvn	r7, #0
 2005648:	eaffffd2 	b	2005598 <IntervalPageRun+0xb0>
 200564c:	e35a003b 	cmp	sl, #59	; 0x3b
 2005650:	e59d1018 	ldr	r1, [sp, #24]
 2005654:	128aa001 	addne	sl, sl, #1
 2005658:	01a0a007 	moveq	sl, r7
 200565c:	e1a0000a 	mov	r0, sl
 2005660:	ebffff85 	bl	200547c <GenerateIntervalPageSpecialIcon>
 2005664:	e1a01004 	mov	r1, r4
 2005668:	e1a00008 	mov	r0, r8
 200566c:	ebfffd49 	bl	2004b98 <GenericGetInputEvent>
 2005670:	e59d6068 	ldr	r6, [sp, #104]	; 0x68
 2005674:	e3560000 	cmp	r6, #0
 2005678:	e1a05000 	mov	r5, r0
 200567c:	0a00005e 	beq	20057fc <IntervalPageRun+0x314>
 2005680:	e3700001 	cmn	r0, #1
 2005684:	0a0000a3 	beq	2005918 <IntervalPageRun+0x430>
 2005688:	e3500001 	cmp	r0, #1
 200568c:	1a000198 	bne	2005cf4 <IntervalPageRun+0x80c>
 2005690:	e1a01004 	mov	r1, r4
 2005694:	e1a00008 	mov	r0, r8
 2005698:	ebfffd3e 	bl	2004b98 <GenericGetInputEvent>
 200569c:	e59d9068 	ldr	r9, [sp, #104]	; 0x68
 20056a0:	e3590000 	cmp	r9, #0
 20056a4:	e1a05000 	mov	r5, r0
 20056a8:	0affffdb 	beq	200561c <IntervalPageRun+0x134>
 20056ac:	e3700001 	cmn	r0, #1
 20056b0:	0a00017f 	beq	2005cb4 <IntervalPageRun+0x7cc>
 20056b4:	e3500001 	cmp	r0, #1
 20056b8:	1a00018d 	bne	2005cf4 <IntervalPageRun+0x80c>
 20056bc:	e1a01004 	mov	r1, r4
 20056c0:	e1a00008 	mov	r0, r8
 20056c4:	ebfffd33 	bl	2004b98 <GenericGetInputEvent>
 20056c8:	e59d6068 	ldr	r6, [sp, #104]	; 0x68
 20056cc:	e3560000 	cmp	r6, #0
 20056d0:	e1a05000 	mov	r5, r0
 20056d4:	0affffd9 	beq	2005640 <IntervalPageRun+0x158>
 20056d8:	e3700001 	cmn	r0, #1
 20056dc:	0a000186 	beq	2005cfc <IntervalPageRun+0x814>
 20056e0:	e3500001 	cmp	r0, #1
 20056e4:	1a000182 	bne	2005cf4 <IntervalPageRun+0x80c>
 20056e8:	e1a01004 	mov	r1, r4
 20056ec:	e1a00008 	mov	r0, r8
 20056f0:	ebfffd28 	bl	2004b98 <GenericGetInputEvent>
 20056f4:	e59d6068 	ldr	r6, [sp, #104]	; 0x68
 20056f8:	e3560000 	cmp	r6, #0
 20056fc:	03a09000 	moveq	r9, #0
 2005700:	03e07000 	mvneq	r7, #0
 2005704:	e1a05000 	mov	r5, r0
 2005708:	0affffa2 	beq	2005598 <IntervalPageRun+0xb0>
 200570c:	e1a09007 	mov	r9, r7
 2005710:	e1a06007 	mov	r6, r7
 2005714:	e3e07000 	mvn	r7, #0
 2005718:	e3750001 	cmn	r5, #1
 200571c:	0affff9d 	beq	2005598 <IntervalPageRun+0xb0>
 2005720:	e2263001 	eor	r3, r6, #1
 2005724:	e3550001 	cmp	r5, #1
 2005728:	03a03000 	moveq	r3, #0
 200572c:	12033001 	andne	r3, r3, #1
 2005730:	e3530000 	cmp	r3, #0
 2005734:	1a000021 	bne	20057c0 <IntervalPageRun+0x2d8>
 2005738:	e3d73002 	bics	r3, r7, #2
 200573c:	1affff95 	bne	2005598 <IntervalPageRun+0xb0>
 2005740:	e3590000 	cmp	r9, #0
 2005744:	028d5070 	addeq	r5, sp, #112	; 0x70
 2005748:	1a000035 	bne	2005824 <IntervalPageRun+0x33c>
 200574c:	e894000f 	ldm	r4, {r0, r1, r2, r3}
 2005750:	e88d000f 	stm	sp, {r0, r1, r2, r3}
 2005754:	e895000f 	ldm	r5, {r0, r1, r2, r3}
 2005758:	ebfffcfb 	bl	2004b4c <TimeMSBetween>
 200575c:	e3500e7d 	cmp	r0, #2000	; 0x7d0
 2005760:	daffff8c 	ble	2005598 <IntervalPageRun+0xb0>
 2005764:	e1a0e004 	mov	lr, r4
 2005768:	e1a0c005 	mov	ip, r5
 200576c:	e8be000f 	ldm	lr!, {r0, r1, r2, r3}
 2005770:	e3a09001 	mov	r9, #1
 2005774:	e8ac000f 	stmia	ip!, {r0, r1, r2, r3}
 2005778:	e8be000f 	ldm	lr!, {r0, r1, r2, r3}
 200577c:	e8ac000f 	stmia	ip!, {r0, r1, r2, r3}
 2005780:	e89e0003 	ldm	lr, {r0, r1}
 2005784:	e88c0003 	stm	ip, {r0, r1}
 2005788:	eaffff82 	b	2005598 <IntervalPageRun+0xb0>
 200578c:	e1a01004 	mov	r1, r4
 2005790:	e1a00008 	mov	r0, r8
 2005794:	ebfffcff 	bl	2004b98 <GenericGetInputEvent>
 2005798:	e59d6068 	ldr	r6, [sp, #104]	; 0x68
 200579c:	e3560000 	cmp	r6, #0
 20057a0:	e1a07000 	mov	r7, r0
 20057a4:	0a000014 	beq	20057fc <IntervalPageRun+0x314>
 20057a8:	e3700001 	cmn	r0, #1
 20057ac:	01a06009 	moveq	r6, r9
 20057b0:	0affff78 	beq	2005598 <IntervalPageRun+0xb0>
 20057b4:	e3500001 	cmp	r0, #1
 20057b8:	0affff97 	beq	200561c <IntervalPageRun+0x134>
 20057bc:	e1a05000 	mov	r5, r0
 20057c0:	e1a0e004 	mov	lr, r4
 20057c4:	e28dc070 	add	ip, sp, #112	; 0x70
 20057c8:	e8be000f 	ldm	lr!, {r0, r1, r2, r3}
 20057cc:	e3a0b014 	mov	fp, #20
 20057d0:	e1a07005 	mov	r7, r5
 20057d4:	e3a06001 	mov	r6, #1
 20057d8:	e8ac000f 	stmia	ip!, {r0, r1, r2, r3}
 20057dc:	e8be000f 	ldm	lr!, {r0, r1, r2, r3}
 20057e0:	e8ac000f 	stmia	ip!, {r0, r1, r2, r3}
 20057e4:	e89e0003 	ldm	lr, {r0, r1}
 20057e8:	e59f3520 	ldr	r3, [pc, #1312]	; 2005d10 <IntervalPageRun+0x828>
 20057ec:	e88c0003 	stm	ip, {r0, r1}
 20057f0:	e020359b 	mla	r0, fp, r5, r3
 20057f4:	ebfff9ca 	bl	2003f24 <PressButton>
 20057f8:	eaffffce 	b	2005738 <IntervalPageRun+0x250>
 20057fc:	e1a01004 	mov	r1, r4
 2005800:	e1a00008 	mov	r0, r8
 2005804:	ebfffce3 	bl	2004b98 <GenericGetInputEvent>
 2005808:	e59d9068 	ldr	r9, [sp, #104]	; 0x68
 200580c:	e3590000 	cmp	r9, #0
 2005810:	e1a05000 	mov	r5, r0
 2005814:	0affff80 	beq	200561c <IntervalPageRun+0x134>
 2005818:	e1a09006 	mov	r9, r6
 200581c:	e3e07000 	mvn	r7, #0
 2005820:	eaffffbc 	b	2005718 <IntervalPageRun+0x230>
 2005824:	e894000f 	ldm	r4, {r0, r1, r2, r3}
 2005828:	e28d5070 	add	r5, sp, #112	; 0x70
 200582c:	e88d000f 	stm	sp, {r0, r1, r2, r3}
 2005830:	e895000f 	ldm	r5, {r0, r1, r2, r3}
 2005834:	ebfffcc4 	bl	2004b4c <TimeMSBetween>
 2005838:	e3500032 	cmp	r0, #50	; 0x32
 200583c:	daffffc2 	ble	200574c <IntervalPageRun+0x264>
 2005840:	e3570000 	cmp	r7, #0
 2005844:	028aa001 	addeq	sl, sl, #1
 2005848:	124aa001 	subne	sl, sl, #1
 200584c:	e35a003c 	cmp	sl, #60	; 0x3c
 2005850:	03a0a000 	moveq	sl, #0
 2005854:	0a000001 	beq	2005860 <IntervalPageRun+0x378>
 2005858:	e37a0001 	cmn	sl, #1
 200585c:	03a0a03b 	moveq	sl, #59	; 0x3b
 2005860:	e59d1018 	ldr	r1, [sp, #24]
 2005864:	e1a0000a 	mov	r0, sl
 2005868:	ebffff03 	bl	200547c <GenerateIntervalPageSpecialIcon>
 200586c:	e1a0e004 	mov	lr, r4
 2005870:	e8be000f 	ldm	lr!, {r0, r1, r2, r3}
 2005874:	e1a0c005 	mov	ip, r5
 2005878:	e8ac000f 	stmia	ip!, {r0, r1, r2, r3}
 200587c:	e8be000f 	ldm	lr!, {r0, r1, r2, r3}
 2005880:	e8ac000f 	stmia	ip!, {r0, r1, r2, r3}
 2005884:	e89e0003 	ldm	lr, {r0, r1}
 2005888:	e88c0003 	stm	ip, {r0, r1}
 200588c:	eaffffae 	b	200574c <IntervalPageRun+0x264>
 2005890:	e3570004 	cmp	r7, #4
 2005894:	979ff107 	ldrls	pc, [pc, r7, lsl #2]
 2005898:	eaffff4d 	b	20055d4 <IntervalPageRun+0xec>
 200589c:	0200564c 	andeq	r5, r0, #76, 12	; 0x4c00000
 20058a0:	020055d4 	andeq	r5, r0, #212, 10	; 0x35000000
 20058a4:	020058c0 	andeq	r5, r0, #192, 16	; 0xc00000
 20058a8:	020058b0 	andeq	r5, r0, #176, 16	; 0xb00000
 20058ac:	020058b8 	andeq	r5, r0, #184, 16	; 0xb80000
 20058b0:	e59d3014 	ldr	r3, [sp, #20]
 20058b4:	e583a000 	str	sl, [r3]
 20058b8:	e28dd09c 	add	sp, sp, #156	; 0x9c
 20058bc:	e8bd8ff0 	pop	{r4, r5, r6, r7, r8, r9, sl, fp, pc}
 20058c0:	e24aa001 	sub	sl, sl, #1
 20058c4:	e59d1018 	ldr	r1, [sp, #24]
 20058c8:	e37a0001 	cmn	sl, #1
 20058cc:	03a0a03b 	moveq	sl, #59	; 0x3b
 20058d0:	e1a0000a 	mov	r0, sl
 20058d4:	ebfffee8 	bl	200547c <GenerateIntervalPageSpecialIcon>
 20058d8:	eaffff3d 	b	20055d4 <IntervalPageRun+0xec>
 20058dc:	e1a01004 	mov	r1, r4
 20058e0:	e1a00008 	mov	r0, r8
 20058e4:	ebfffcab 	bl	2004b98 <GenericGetInputEvent>
 20058e8:	e59d6068 	ldr	r6, [sp, #104]	; 0x68
 20058ec:	e3560000 	cmp	r6, #0
 20058f0:	0a000014 	beq	2005948 <IntervalPageRun+0x460>
 20058f4:	e3a09000 	mov	r9, #0
 20058f8:	e1a07005 	mov	r7, r5
 20058fc:	e1a06009 	mov	r6, r9
 2005900:	e1a05000 	mov	r5, r0
 2005904:	eaffff83 	b	2005718 <IntervalPageRun+0x230>
 2005908:	e3a09000 	mov	r9, #0
 200590c:	e3e07000 	mvn	r7, #0
 2005910:	e1a06009 	mov	r6, r9
 2005914:	eaffff7f 	b	2005718 <IntervalPageRun+0x230>
 2005918:	e1a01004 	mov	r1, r4
 200591c:	e1a00008 	mov	r0, r8
 2005920:	ebfffc9c 	bl	2004b98 <GenericGetInputEvent>
 2005924:	e59d9068 	ldr	r9, [sp, #104]	; 0x68
 2005928:	e3590000 	cmp	r9, #0
 200592c:	1a0000e6 	bne	2005ccc <IntervalPageRun+0x7e4>
 2005930:	e1a01004 	mov	r1, r4
 2005934:	e1a00008 	mov	r0, r8
 2005938:	ebfffc96 	bl	2004b98 <GenericGetInputEvent>
 200593c:	e59d6068 	ldr	r6, [sp, #104]	; 0x68
 2005940:	e3560000 	cmp	r6, #0
 2005944:	1affffeb 	bne	20058f8 <IntervalPageRun+0x410>
 2005948:	e1a07005 	mov	r7, r5
 200594c:	e1a09006 	mov	r9, r6
 2005950:	eaffff10 	b	2005598 <IntervalPageRun+0xb0>
 2005954:	e3a09000 	mov	r9, #0
 2005958:	eaffff98 	b	20057c0 <IntervalPageRun+0x2d8>
 200595c:	e30b006c 	movw	r0, #45164	; 0xb06c
 2005960:	e3400200 	movt	r0, #512	; 0x200
 2005964:	ebfff5c1 	bl	2003070 <DebugPrint>
 2005968:	eafffeff 	b	200556c <IntervalPageRun+0x84>
 200596c:	e59db014 	ldr	fp, [sp, #20]
 2005970:	e28d1044 	add	r1, sp, #68	; 0x44
 2005974:	e1a02004 	mov	r2, r4
 2005978:	e28d0040 	add	r0, sp, #64	; 0x40
 200597c:	e3058556 	movw	r8, #21846	; 0x5556
 2005980:	e3458555 	movt	r8, #21845	; 0x5555
 2005984:	e59b501c 	ldr	r5, [fp, #28]
 2005988:	ebffef75 	bl	2001764 <GetDispResolution>
 200598c:	e59d2044 	ldr	r2, [sp, #68]	; 0x44
 2005990:	e3e03033 	mvn	r3, #51	; 0x33
 2005994:	e59d0040 	ldr	r0, [sp, #64]	; 0x40
 2005998:	e3a07034 	mov	r7, #52	; 0x34
 200599c:	e3a0e01c 	mov	lr, #28
 20059a0:	e0c98892 	smull	r8, r9, r2, r8
 20059a4:	e58d0028 	str	r0, [sp, #40]	; 0x28
 20059a8:	e1a01fc2 	asr	r1, r2, #31
 20059ac:	e59d0048 	ldr	r0, [sp, #72]	; 0x48
 20059b0:	e049c001 	sub	ip, r9, r1
 20059b4:	e30a8aab 	movw	r8, #43691	; 0xaaab
 20059b8:	e3428aaa 	movt	r8, #10922	; 0x2aaa
 20059bc:	e59b9018 	ldr	r9, [fp, #24]
 20059c0:	e58d001c 	str	r0, [sp, #28]
 20059c4:	e0000c93 	mul	r0, r3, ip
 20059c8:	e59d301c 	ldr	r3, [sp, #28]
 20059cc:	e0070c97 	mul	r7, r7, ip
 20059d0:	e58b3014 	str	r3, [fp, #20]
 20059d4:	e3500000 	cmp	r0, #0
 20059d8:	e280307f 	add	r3, r0, #127	; 0x7f
 20059dc:	e00e0c9e 	mul	lr, lr, ip
 20059e0:	b1a00003 	movlt	r0, r3
 20059e4:	e59d3028 	ldr	r3, [sp, #40]	; 0x28
 20059e8:	e3570000 	cmp	r7, #0
 20059ec:	e08303c0 	add	r0, r3, r0, asr #7
 20059f0:	e0c32892 	smull	r2, r3, r2, r8
 20059f4:	e287807f 	add	r8, r7, #127	; 0x7f
 20059f8:	e0800fa0 	add	r0, r0, r0, lsr #31
 20059fc:	b1a07008 	movlt	r7, r8
 2005a00:	e35e0000 	cmp	lr, #0
 2005a04:	e1a000c0 	asr	r0, r0, #1
 2005a08:	e08073c7 	add	r7, r0, r7, asr #7
 2005a0c:	e1cd22f0 	strd	r2, [sp, #32]
 2005a10:	e28e207f 	add	r2, lr, #127	; 0x7f
 2005a14:	e2477001 	sub	r7, r7, #1
 2005a18:	e5857008 	str	r7, [r5, #8]
 2005a1c:	b1a0e002 	movlt	lr, r2
 2005a20:	e59d2024 	ldr	r2, [sp, #36]	; 0x24
 2005a24:	e1a033ce 	asr	r3, lr, #7
 2005a28:	e58d302c 	str	r3, [sp, #44]	; 0x2c
 2005a2c:	e0428001 	sub	r8, r2, r1
 2005a30:	e0472000 	sub	r2, r7, r0
 2005a34:	e0883003 	add	r3, r8, r3
 2005a38:	e2822001 	add	r2, r2, #1
 2005a3c:	e2431001 	sub	r1, r3, #1
 2005a40:	e58d3020 	str	r3, [sp, #32]
 2005a44:	e0413008 	sub	r3, r1, r8
 2005a48:	e585100c 	str	r1, [r5, #12]
 2005a4c:	e59d101c 	ldr	r1, [sp, #28]
 2005a50:	e0232293 	mla	r3, r3, r2, r2
 2005a54:	e8850101 	stm	r5, {r0, r8}
 2005a58:	e0030391 	mul	r3, r1, r3
 2005a5c:	e2831007 	add	r1, r3, #7
 2005a60:	e3530000 	cmp	r3, #0
 2005a64:	b1a03001 	movlt	r3, r1
 2005a68:	e3a01048 	mov	r1, #72	; 0x48
 2005a6c:	e1a031c3 	asr	r3, r3, #3
 2005a70:	e1530009 	cmp	r3, r9
 2005a74:	c58b3018 	strgt	r3, [fp, #24]
 2005a78:	e0010c91 	mul	r1, r1, ip
 2005a7c:	c1a09003 	movgt	r9, r3
 2005a80:	e59d3028 	ldr	r3, [sp, #40]	; 0x28
 2005a84:	e59db020 	ldr	fp, [sp, #32]
 2005a88:	e043300c 	sub	r3, r3, ip
 2005a8c:	e3510000 	cmp	r1, #0
 2005a90:	e083efa3 	add	lr, r3, r3, lsr #31
 2005a94:	e585b018 	str	fp, [r5, #24]
 2005a98:	e1a0e0ce 	asr	lr, lr, #1
 2005a9c:	e585e014 	str	lr, [r5, #20]
 2005aa0:	e58de030 	str	lr, [sp, #48]	; 0x30
 2005aa4:	e1a0b00e 	mov	fp, lr
 2005aa8:	e08cc00b 	add	ip, ip, fp
 2005aac:	e281e07f 	add	lr, r1, #127	; 0x7f
 2005ab0:	e24cc001 	sub	ip, ip, #1
 2005ab4:	e58dc034 	str	ip, [sp, #52]	; 0x34
 2005ab8:	b1a0100e 	movlt	r1, lr
 2005abc:	e1a0e00c 	mov	lr, ip
 2005ac0:	e585e01c 	str	lr, [r5, #28]
 2005ac4:	e04cc00b 	sub	ip, ip, fp
 2005ac8:	e59de020 	ldr	lr, [sp, #32]
 2005acc:	e28cb001 	add	fp, ip, #1
 2005ad0:	e58db038 	str	fp, [sp, #56]	; 0x38
 2005ad4:	e08e13c1 	add	r1, lr, r1, asr #7
 2005ad8:	e241c001 	sub	ip, r1, #1
 2005adc:	e585c020 	str	ip, [r5, #32]
 2005ae0:	e58dc028 	str	ip, [sp, #40]	; 0x28
 2005ae4:	e04cc00e 	sub	ip, ip, lr
 2005ae8:	e28cc001 	add	ip, ip, #1
 2005aec:	e58dc03c 	str	ip, [sp, #60]	; 0x3c
 2005af0:	e59de01c 	ldr	lr, [sp, #28]
 2005af4:	e00c0b9c 	mul	ip, ip, fp
 2005af8:	e00c0c9e 	mul	ip, lr, ip
 2005afc:	e28ce007 	add	lr, ip, #7
 2005b00:	e35c0000 	cmp	ip, #0
 2005b04:	b1a0c00e 	movlt	ip, lr
 2005b08:	e1a0c1cc 	asr	ip, ip, #3
 2005b0c:	e15c0009 	cmp	ip, r9
 2005b10:	c59de014 	ldrgt	lr, [sp, #20]
 2005b14:	c1a0900c 	movgt	r9, ip
 2005b18:	e585102c 	str	r1, [r5, #44]	; 0x2c
 2005b1c:	e5850028 	str	r0, [r5, #40]	; 0x28
 2005b20:	e3050556 	movw	r0, #21846	; 0x5556
 2005b24:	c58ec018 	strgt	ip, [lr, #24]
 2005b28:	e3450555 	movt	r0, #21845	; 0x5555
 2005b2c:	e59dc02c 	ldr	ip, [sp, #44]	; 0x2c
 2005b30:	e5857030 	str	r7, [r5, #48]	; 0x30
 2005b34:	e08cc001 	add	ip, ip, r1
 2005b38:	e24cc001 	sub	ip, ip, #1
 2005b3c:	e585c034 	str	ip, [r5, #52]	; 0x34
 2005b40:	e04c1001 	sub	r1, ip, r1
 2005b44:	e0222291 	mla	r2, r1, r2, r2
 2005b48:	e59d101c 	ldr	r1, [sp, #28]
 2005b4c:	e0020291 	mul	r2, r1, r2
 2005b50:	e2821007 	add	r1, r2, #7
 2005b54:	e3520000 	cmp	r2, #0
 2005b58:	b1a02001 	movlt	r2, r1
 2005b5c:	e1a021c2 	asr	r2, r2, #3
 2005b60:	e1520009 	cmp	r2, r9
 2005b64:	c59d1014 	ldrgt	r1, [sp, #20]
 2005b68:	c1a09002 	movgt	r9, r2
 2005b6c:	c5812018 	strgt	r2, [r1, #24]
 2005b70:	e088200c 	add	r2, r8, ip
 2005b74:	e0c10093 	smull	r0, r1, r3, r0
 2005b78:	e2822001 	add	r2, r2, #1
 2005b7c:	e088c002 	add	ip, r8, r2
 2005b80:	e5852040 	str	r2, [r5, #64]	; 0x40
 2005b84:	e0413fc3 	sub	r3, r1, r3, asr #31
 2005b88:	e24cc001 	sub	ip, ip, #1
 2005b8c:	e088e003 	add	lr, r8, r3
 2005b90:	e04c0002 	sub	r0, ip, r2
 2005b94:	e24e7001 	sub	r7, lr, #1
 2005b98:	e2800001 	add	r0, r0, #1
 2005b9c:	e0471003 	sub	r1, r7, r3
 2005ba0:	e5857044 	str	r7, [r5, #68]	; 0x44
 2005ba4:	e59d701c 	ldr	r7, [sp, #28]
 2005ba8:	e0210091 	mla	r1, r1, r0, r0
 2005bac:	e585303c 	str	r3, [r5, #60]	; 0x3c
 2005bb0:	e083300e 	add	r3, r3, lr
 2005bb4:	e5852054 	str	r2, [r5, #84]	; 0x54
 2005bb8:	e0882003 	add	r2, r8, r3
 2005bbc:	e5853050 	str	r3, [r5, #80]	; 0x50
 2005bc0:	e2422001 	sub	r2, r2, #1
 2005bc4:	e5852058 	str	r2, [r5, #88]	; 0x58
 2005bc8:	e0423003 	sub	r3, r2, r3
 2005bcc:	e59d201c 	ldr	r2, [sp, #28]
 2005bd0:	e0010197 	mul	r1, r7, r1
 2005bd4:	e59de038 	ldr	lr, [sp, #56]	; 0x38
 2005bd8:	e0230093 	mla	r3, r3, r0, r0
 2005bdc:	e585c048 	str	ip, [r5, #72]	; 0x48
 2005be0:	e2817007 	add	r7, r1, #7
 2005be4:	e3510000 	cmp	r1, #0
 2005be8:	e585c05c 	str	ip, [r5, #92]	; 0x5c
 2005bec:	e3a0c026 	mov	ip, #38	; 0x26
 2005bf0:	b1a01007 	movlt	r1, r7
 2005bf4:	e30c5a5c 	movw	r5, #51804	; 0xca5c
 2005bf8:	e1a011c1 	asr	r1, r1, #3
 2005bfc:	e3405201 	movt	r5, #513	; 0x201
 2005c00:	e1510009 	cmp	r1, r9
 2005c04:	e00b0392 	mul	fp, r2, r3
 2005c08:	c59d7014 	ldrgt	r7, [sp, #20]
 2005c0c:	c1a09001 	movgt	r9, r1
 2005c10:	e00c0e9c 	mul	ip, ip, lr
 2005c14:	c5871018 	strgt	r1, [r7, #24]
 2005c18:	e28b3007 	add	r3, fp, #7
 2005c1c:	e35b0000 	cmp	fp, #0
 2005c20:	e3e01025 	mvn	r1, #37	; 0x25
 2005c24:	b1a0b003 	movlt	fp, r3
 2005c28:	e1a031cb 	asr	r3, fp, #3
 2005c2c:	e1530009 	cmp	r3, r9
 2005c30:	e0010e91 	mul	r1, r1, lr
 2005c34:	c59d2014 	ldrgt	r2, [sp, #20]
 2005c38:	e28ce07f 	add	lr, ip, #127	; 0x7f
 2005c3c:	c5823018 	strgt	r3, [r2, #24]
 2005c40:	e3082e39 	movw	r2, #36409	; 0x8e39
 2005c44:	e59d303c 	ldr	r3, [sp, #60]	; 0x3c
 2005c48:	e34328e3 	movt	r2, #14563	; 0x38e3
 2005c4c:	e3510000 	cmp	r1, #0
 2005c50:	e1a00203 	lsl	r0, r3, #4
 2005c54:	e0c32290 	smull	r2, r3, r0, r2
 2005c58:	e1a07fc0 	asr	r7, r0, #31
 2005c5c:	e281007f 	add	r0, r1, #127	; 0x7f
 2005c60:	e59d2028 	ldr	r2, [sp, #40]	; 0x28
 2005c64:	b1a01000 	movlt	r1, r0
 2005c68:	e35c0000 	cmp	ip, #0
 2005c6c:	e1a03243 	asr	r3, r3, #4
 2005c70:	b1a0c00e 	movlt	ip, lr
 2005c74:	e0470003 	sub	r0, r7, r3
 2005c78:	e0433007 	sub	r3, r3, r7
 2005c7c:	e0800002 	add	r0, r0, r2
 2005c80:	e59d2034 	ldr	r2, [sp, #52]	; 0x34
 2005c84:	e2800001 	add	r0, r0, #1
 2005c88:	e585000c 	str	r0, [r5, #12]
 2005c8c:	e08213c1 	add	r1, r2, r1, asr #7
 2005c90:	e59d2020 	ldr	r2, [sp, #32]
 2005c94:	e0833002 	add	r3, r3, r2
 2005c98:	e5853004 	str	r3, [r5, #4]
 2005c9c:	e59d3030 	ldr	r3, [sp, #48]	; 0x30
 2005ca0:	e083c3cc 	add	ip, r3, ip, asr #7
 2005ca4:	e2813001 	add	r3, r1, #1
 2005ca8:	e585c000 	str	ip, [r5]
 2005cac:	e5853008 	str	r3, [r5, #8]
 2005cb0:	eafffe24 	b	2005548 <IntervalPageRun+0x60>
 2005cb4:	e1a01004 	mov	r1, r4
 2005cb8:	e1a00008 	mov	r0, r8
 2005cbc:	ebfffbb5 	bl	2004b98 <GenericGetInputEvent>
 2005cc0:	e59d6068 	ldr	r6, [sp, #104]	; 0x68
 2005cc4:	e3560000 	cmp	r6, #0
 2005cc8:	0affff1e 	beq	2005948 <IntervalPageRun+0x460>
 2005ccc:	e1a09007 	mov	r9, r7
 2005cd0:	e1a06007 	mov	r6, r7
 2005cd4:	e1a07005 	mov	r7, r5
 2005cd8:	e1a05000 	mov	r5, r0
 2005cdc:	eafffe8d 	b	2005718 <IntervalPageRun+0x230>
 2005ce0:	e30b0044 	movw	r0, #45124	; 0xb044
 2005ce4:	e3400200 	movt	r0, #512	; 0x200
 2005ce8:	ebfff4e0 	bl	2003070 <DebugPrint>
 2005cec:	e28d4048 	add	r4, sp, #72	; 0x48
 2005cf0:	eafffe21 	b	200557c <IntervalPageRun+0x94>
 2005cf4:	e1a09007 	mov	r9, r7
 2005cf8:	eafffeb0 	b	20057c0 <IntervalPageRun+0x2d8>
 2005cfc:	e1a09007 	mov	r9, r7
 2005d00:	e1a06007 	mov	r6, r7
 2005d04:	e1a07005 	mov	r7, r5
 2005d08:	eafffe22 	b	2005598 <IntervalPageRun+0xb0>
 2005d0c:	0201c378 	andeq	ip, r1, #120, 6	; 0xe0000001
 2005d10:	0201c394 	andeq	ip, r1, #148, 6	; 0x50000002

02005d14 <GetIntervalTime>:
 2005d14:	e30c3374 	movw	r3, #50036	; 0xc374
 2005d18:	e3403201 	movt	r3, #513	; 0x201
 2005d1c:	e5933000 	ldr	r3, [r3]
 2005d20:	e5803000 	str	r3, [r0]
 2005d24:	e12fff1e 	bx	lr

02005d28 <IntervalPageInit>:
 2005d28:	e59f0000 	ldr	r0, [pc]	; 2005d30 <IntervalPageInit+0x8>
 2005d2c:	eafffaf7 	b	2004910 <RegisterPageAction>
 2005d30:	0201c40c 	andeq	ip, r1, #12, 8	; 0xc000000

02005d34 <BrowsePageGetInputEvent>:
 2005d34:	eafffb97 	b	2004b98 <GenericGetInputEvent>

02005d38 <DeSelectDirFileIcon>:
 2005d38:	e92d4070 	push	{r4, r5, r6, lr}
 2005d3c:	e30c4a70 	movw	r4, #51824	; 0xca70
 2005d40:	e3404201 	movt	r4, #513	; 0x201
 2005d44:	e1a06000 	mov	r6, r0
 2005d48:	ebffef3b 	bl	2001a3c <GetDevVideoMem>
 2005d4c:	e3c6c001 	bic	ip, r6, #1
 2005d50:	e5942004 	ldr	r2, [r4, #4]
 2005d54:	e3a05014 	mov	r5, #20
 2005d58:	e5941000 	ldr	r1, [r4]
 2005d5c:	e08220c6 	add	r2, r2, r6, asr #1
 2005d60:	e0050c95 	mul	r5, r5, ip
 2005d64:	e7912102 	ldr	r2, [r1, r2, lsl #2]
 2005d68:	e5922100 	ldr	r2, [r2, #256]	; 0x100
 2005d6c:	e3520000 	cmp	r2, #0
 2005d70:	0a000007 	beq	2005d94 <DeSelectDirFileIcon+0x5c>
 2005d74:	e5940008 	ldr	r0, [r4, #8]
 2005d78:	e0800005 	add	r0, r0, r5
 2005d7c:	e2855014 	add	r5, r5, #20
 2005d80:	ebfff866 	bl	2003f20 <ReleaseButton>
 2005d84:	e5940008 	ldr	r0, [r4, #8]
 2005d88:	e0800005 	add	r0, r0, r5
 2005d8c:	e8bd4070 	pop	{r4, r5, r6, lr}
 2005d90:	eafff862 	b	2003f20 <ReleaseButton>
 2005d94:	e5941008 	ldr	r1, [r4, #8]
 2005d98:	e2803010 	add	r3, r0, #16
 2005d9c:	e284200c 	add	r2, r4, #12
 2005da0:	e081c005 	add	ip, r1, r5
 2005da4:	e7910005 	ldr	r0, [r1, r5]
 2005da8:	e59c1004 	ldr	r1, [ip, #4]
 2005dac:	e8bd4070 	pop	{r4, r5, r6, lr}
 2005db0:	eafffa64 	b	2004748 <PicMerge>

02005db4 <GenerateBrowsePageDirAndFile>:
 2005db4:	e92d4ff0 	push	{r4, r5, r6, r7, r8, r9, sl, fp, lr}
 2005db8:	e30c9a70 	movw	r9, #51824	; 0xca70
 2005dbc:	e3409201 	movt	r9, #513	; 0x201
 2005dc0:	e1a0b003 	mov	fp, r3
 2005dc4:	e24dd024 	sub	sp, sp, #36	; 0x24
 2005dc8:	e1a07000 	mov	r7, r0
 2005dcc:	e599e030 	ldr	lr, [r9, #48]	; 0x30
 2005dd0:	e30dcbb5 	movw	ip, #56245	; 0xdbb5
 2005dd4:	e58d1014 	str	r1, [sp, #20]
 2005dd8:	e340c0e7 	movt	ip, #231	; 0xe7
 2005ddc:	e58d201c 	str	r2, [sp, #28]
 2005de0:	e1a0300e 	mov	r3, lr
 2005de4:	e599e03c 	ldr	lr, [r9, #60]	; 0x3c
 2005de8:	e599202c 	ldr	r2, [r9, #44]	; 0x2c
 2005dec:	e5991028 	ldr	r1, [r9, #40]	; 0x28
 2005df0:	e1a0400e 	mov	r4, lr
 2005df4:	e5990024 	ldr	r0, [r9, #36]	; 0x24
 2005df8:	e58dc004 	str	ip, [sp, #4]
 2005dfc:	e58db000 	str	fp, [sp]
 2005e00:	e58de018 	str	lr, [sp, #24]
 2005e04:	ebfff6db 	bl	2003978 <ClearRectangleInVideoMem>
 2005e08:	e5943018 	ldr	r3, [r4, #24]
 2005e0c:	e5940020 	ldr	r0, [r4, #32]
 2005e10:	e0400003 	sub	r0, r0, r3
 2005e14:	e2400005 	sub	r0, r0, #5
 2005e18:	ebfff24b 	bl	200274c <SetFontSize>
 2005e1c:	e5993040 	ldr	r3, [r9, #64]	; 0x40
 2005e20:	e3530000 	cmp	r3, #0
 2005e24:	c58db00c 	strgt	fp, [sp, #12]
 2005e28:	c28ba010 	addgt	sl, fp, #16
 2005e2c:	c3a08000 	movgt	r8, #0
 2005e30:	c58d8010 	strgt	r8, [sp, #16]
 2005e34:	da000033 	ble	2005f08 <GenerateBrowsePageDirAndFile+0x154>
 2005e38:	e599305c 	ldr	r3, [r9, #92]	; 0x5c
 2005e3c:	e3530000 	cmp	r3, #0
 2005e40:	da000027 	ble	2005ee4 <GenerateBrowsePageDirAndFile+0x130>
 2005e44:	e59d3014 	ldr	r3, [sp, #20]
 2005e48:	e1530007 	cmp	r3, r7
 2005e4c:	da00002d 	ble	2005f08 <GenerateBrowsePageDirAndFile+0x154>
 2005e50:	e59d2018 	ldr	r2, [sp, #24]
 2005e54:	e3a04014 	mov	r4, #20
 2005e58:	e2476107 	sub	r6, r7, #-1073741823	; 0xc0000001
 2005e5c:	e043b007 	sub	fp, r3, r7
 2005e60:	e3a05000 	mov	r5, #0
 2005e64:	e0242894 	mla	r4, r4, r8, r2
 2005e68:	e59d201c 	ldr	r2, [sp, #28]
 2005e6c:	e0826106 	add	r6, r2, r6, lsl #2
 2005e70:	ea000001 	b	2005e7c <GenerateBrowsePageDirAndFile+0xc8>
 2005e74:	e15b0005 	cmp	fp, r5
 2005e78:	0a000022 	beq	2005f08 <GenerateBrowsePageDirAndFile+0x154>
 2005e7c:	e5b61004 	ldr	r1, [r6, #4]!
 2005e80:	e1a0300a 	mov	r3, sl
 2005e84:	e594c000 	ldr	ip, [r4]
 2005e88:	e2855001 	add	r5, r5, #1
 2005e8c:	e59f2080 	ldr	r2, [pc, #128]	; 2005f14 <GenerateBrowsePageDirAndFile+0x160>
 2005e90:	e2888002 	add	r8, r8, #2
 2005e94:	e5911100 	ldr	r1, [r1, #256]	; 0x100
 2005e98:	e2877001 	add	r7, r7, #1
 2005e9c:	e1a0000c 	mov	r0, ip
 2005ea0:	e2844028 	add	r4, r4, #40	; 0x28
 2005ea4:	e3510000 	cmp	r1, #0
 2005ea8:	e5141024 	ldr	r1, [r4, #-36]	; 0xffffffdc
 2005eac:	02422038 	subeq	r2, r2, #56	; 0x38
 2005eb0:	ebfffa24 	bl	2004748 <PicMerge>
 2005eb4:	e596c000 	ldr	ip, [r6]
 2005eb8:	e59de00c 	ldr	lr, [sp, #12]
 2005ebc:	e5143008 	ldr	r3, [r4, #-8]
 2005ec0:	e514200c 	ldr	r2, [r4, #-12]
 2005ec4:	e5141010 	ldr	r1, [r4, #-16]
 2005ec8:	e5140014 	ldr	r0, [r4, #-20]	; 0xffffffec
 2005ecc:	e58de004 	str	lr, [sp, #4]
 2005ed0:	e58dc000 	str	ip, [sp]
 2005ed4:	ebfff6bf 	bl	20039d8 <MergerStringToCenterOfRectangleInVideoMem>
 2005ed8:	e599305c 	ldr	r3, [r9, #92]	; 0x5c
 2005edc:	e1530005 	cmp	r3, r5
 2005ee0:	caffffe3 	bgt	2005e74 <GenerateBrowsePageDirAndFile+0xc0>
 2005ee4:	e59d3014 	ldr	r3, [sp, #20]
 2005ee8:	e1530007 	cmp	r3, r7
 2005eec:	da000005 	ble	2005f08 <GenerateBrowsePageDirAndFile+0x154>
 2005ef0:	e59d2010 	ldr	r2, [sp, #16]
 2005ef4:	e5993040 	ldr	r3, [r9, #64]	; 0x40
 2005ef8:	e2822001 	add	r2, r2, #1
 2005efc:	e58d2010 	str	r2, [sp, #16]
 2005f00:	e1530002 	cmp	r3, r2
 2005f04:	caffffcb 	bgt	2005e38 <GenerateBrowsePageDirAndFile+0x84>
 2005f08:	e3a00000 	mov	r0, #0
 2005f0c:	e28dd024 	add	sp, sp, #36	; 0x24
 2005f10:	e8bd8ff0 	pop	{r4, r5, r6, r7, r8, r9, sl, fp, pc}
 2005f14:	0201cab4 	andeq	ip, r1, #180, 20	; 0xb4000

02005f18 <ShowBrowsePage.constprop.2>:
 2005f18:	e92d4ff0 	push	{r4, r5, r6, r7, r8, r9, sl, fp, lr}
 2005f1c:	e30c4420 	movw	r4, #50208	; 0xc420
 2005f20:	e3404201 	movt	r4, #513	; 0x201
 2005f24:	e24dd04c 	sub	sp, sp, #76	; 0x4c
 2005f28:	e30a0f94 	movw	r0, #44948	; 0xaf94
 2005f2c:	e3400200 	movt	r0, #512	; 0x200
 2005f30:	e5945018 	ldr	r5, [r4, #24]
 2005f34:	ebfffaa9 	bl	20049e0 <ID>
 2005f38:	e3a01001 	mov	r1, #1
 2005f3c:	ebffee73 	bl	2001910 <GetVideoMem>
 2005f40:	e2503000 	subs	r3, r0, #0
 2005f44:	e58d3008 	str	r3, [sp, #8]
 2005f48:	0a000193 	beq	200659c <ShowBrowsePage.constprop.2+0x684>
 2005f4c:	e5956000 	ldr	r6, [r5]
 2005f50:	e3560000 	cmp	r6, #0
 2005f54:	0a000014 	beq	2005fac <ShowBrowsePage.constprop.2+0x94>
 2005f58:	e30c7a70 	movw	r7, #51824	; 0xca70
 2005f5c:	e3407201 	movt	r7, #513	; 0x201
 2005f60:	e5973020 	ldr	r3, [r7, #32]
 2005f64:	e3530000 	cmp	r3, #0
 2005f68:	0a0000f8 	beq	2006350 <ShowBrowsePage.constprop.2+0x438>
 2005f6c:	e59d4008 	ldr	r4, [sp, #8]
 2005f70:	e30c0420 	movw	r0, #50208	; 0xc420
 2005f74:	e3400201 	movt	r0, #513	; 0x201
 2005f78:	e1a01004 	mov	r1, r4
 2005f7c:	ebfffa9f 	bl	2004a00 <GeneratePage>
 2005f80:	e1a03004 	mov	r3, r4
 2005f84:	e5972000 	ldr	r2, [r7]
 2005f88:	e5971078 	ldr	r1, [r7, #120]	; 0x78
 2005f8c:	e5970004 	ldr	r0, [r7, #4]
 2005f90:	ebffff87 	bl	2005db4 <GenerateBrowsePageDirAndFile>
 2005f94:	e1a00004 	mov	r0, r4
 2005f98:	ebfff5c1 	bl	20036a4 <FlushVideoMemToDev>
 2005f9c:	e1a00004 	mov	r0, r4
 2005fa0:	ebffee9f 	bl	2001a24 <PutVideoMem>
 2005fa4:	e28dd04c 	add	sp, sp, #76	; 0x4c
 2005fa8:	e8bd8ff0 	pop	{r4, r5, r6, r7, r8, r9, sl, fp, pc}
 2005fac:	e28d2030 	add	r2, sp, #48	; 0x30
 2005fb0:	e28d102c 	add	r1, sp, #44	; 0x2c
 2005fb4:	e28d0028 	add	r0, sp, #40	; 0x28
 2005fb8:	e5945018 	ldr	r5, [r4, #24]
 2005fbc:	ebffede8 	bl	2001764 <GetDispResolution>
 2005fc0:	e1cd22d8 	ldrd	r2, [sp, #40]	; 0x28
 2005fc4:	e59d1030 	ldr	r1, [sp, #48]	; 0x30
 2005fc8:	e1520003 	cmp	r2, r3
 2005fcc:	e5841010 	str	r1, [r4, #16]
 2005fd0:	ba000155 	blt	200652c <ShowBrowsePage.constprop.2+0x614>
 2005fd4:	e2832003 	add	r2, r3, #3
 2005fd8:	e3530000 	cmp	r3, #0
 2005fdc:	e5856004 	str	r6, [r5, #4]
 2005fe0:	b1a03002 	movlt	r3, r2
 2005fe4:	e5856000 	str	r6, [r5]
 2005fe8:	e1a03143 	asr	r3, r3, #2
 2005fec:	e5853018 	str	r3, [r5, #24]
 2005ff0:	e2432001 	sub	r2, r3, #1
 2005ff4:	e5856014 	str	r6, [r5, #20]
 2005ff8:	e1a00083 	lsl	r0, r3, #1
 2005ffc:	e5856028 	str	r6, [r5, #40]	; 0x28
 2006000:	e0831000 	add	r1, r3, r0
 2006004:	e585002c 	str	r0, [r5, #44]	; 0x2c
 2006008:	e0833001 	add	r3, r3, r1
 200600c:	e5851040 	str	r1, [r5, #64]	; 0x40
 2006010:	e2400001 	sub	r0, r0, #1
 2006014:	e2433001 	sub	r3, r3, #1
 2006018:	e2411001 	sub	r1, r1, #1
 200601c:	e585603c 	str	r6, [r5, #60]	; 0x3c
 2006020:	e5850020 	str	r0, [r5, #32]
 2006024:	e5853048 	str	r3, [r5, #72]	; 0x48
 2006028:	e5851034 	str	r1, [r5, #52]	; 0x34
 200602c:	e585200c 	str	r2, [r5, #12]
 2006030:	e5852008 	str	r2, [r5, #8]
 2006034:	e585201c 	str	r2, [r5, #28]
 2006038:	e5852030 	str	r2, [r5, #48]	; 0x30
 200603c:	e5852044 	str	r2, [r5, #68]	; 0x44
 2006040:	e5953010 	ldr	r3, [r5, #16]
 2006044:	e3530000 	cmp	r3, #0
 2006048:	0a000019 	beq	20060b4 <ShowBrowsePage.constprop.2+0x19c>
 200604c:	e59dc030 	ldr	ip, [sp, #48]	; 0x30
 2006050:	e2851014 	add	r1, r5, #20
 2006054:	e5940014 	ldr	r0, [r4, #20]
 2006058:	e3a0e000 	mov	lr, #0
 200605c:	e5113008 	ldr	r3, [r1, #-8]
 2006060:	e2811014 	add	r1, r1, #20
 2006064:	e5117024 	ldr	r7, [r1, #-36]	; 0xffffffdc
 2006068:	e5112020 	ldr	r2, [r1, #-32]	; 0xffffffe0
 200606c:	e5115028 	ldr	r5, [r1, #-40]	; 0xffffffd8
 2006070:	e0433007 	sub	r3, r3, r7
 2006074:	e2833001 	add	r3, r3, #1
 2006078:	e0422005 	sub	r2, r2, r5
 200607c:	e0233392 	mla	r3, r2, r3, r3
 2006080:	e003039c 	mul	r3, ip, r3
 2006084:	e3530000 	cmp	r3, #0
 2006088:	e2832007 	add	r2, r3, #7
 200608c:	b1a03002 	movlt	r3, r2
 2006090:	e1a031c3 	asr	r3, r3, #3
 2006094:	e1530000 	cmp	r3, r0
 2006098:	c1a00003 	movgt	r0, r3
 200609c:	e5113004 	ldr	r3, [r1, #-4]
 20060a0:	c3a0e001 	movgt	lr, #1
 20060a4:	e3530000 	cmp	r3, #0
 20060a8:	1affffeb 	bne	200605c <ShowBrowsePage.constprop.2+0x144>
 20060ac:	e35e0000 	cmp	lr, #0
 20060b0:	15840014 	strne	r0, [r4, #20]
 20060b4:	e28d2030 	add	r2, sp, #48	; 0x30
 20060b8:	e28d102c 	add	r1, sp, #44	; 0x2c
 20060bc:	e28d0028 	add	r0, sp, #40	; 0x28
 20060c0:	ebffeda7 	bl	2001764 <GetDispResolution>
 20060c4:	e59da028 	ldr	sl, [sp, #40]	; 0x28
 20060c8:	e59d902c 	ldr	r9, [sp, #44]	; 0x2c
 20060cc:	e15a0009 	cmp	sl, r9
 20060d0:	aa000136 	bge	20065b0 <ShowBrowsePage.constprop.2+0x698>
 20060d4:	e5944028 	ldr	r4, [r4, #40]	; 0x28
 20060d8:	e24aa001 	sub	sl, sl, #1
 20060dc:	e2492001 	sub	r2, r9, #1
 20060e0:	e3a09000 	mov	r9, #0
 20060e4:	e2844001 	add	r4, r4, #1
 20060e8:	e1a0300a 	mov	r3, sl
 20060ec:	e58d2010 	str	r2, [sp, #16]
 20060f0:	e0422004 	sub	r2, r2, r4
 20060f4:	e58d2000 	str	r2, [sp]
 20060f8:	e2838001 	add	r8, r3, #1
 20060fc:	e3081889 	movw	r1, #34953	; 0x8889
 2006100:	e3481888 	movt	r1, #34952	; 0x8888
 2006104:	e3a0c03c 	mov	ip, #60	; 0x3c
 2006108:	e1a02fc8 	asr	r2, r8, #31
 200610c:	e0c10198 	smull	r0, r1, r8, r1
 2006110:	e0881001 	add	r1, r8, r1
 2006114:	e062b2c1 	rsb	fp, r2, r1, asr #5
 2006118:	e28b1001 	add	r1, fp, #1
 200611c:	e0608b9c 	mls	r0, ip, fp, r8
 2006120:	eb000982 	bl	2008730 <__divsi3>
 2006124:	e3500009 	cmp	r0, #9
 2006128:	e1a05000 	mov	r5, r0
 200612c:	c58db004 	strgt	fp, [sp, #4]
 2006130:	ca00000d 	bgt	200616c <ShowBrowsePage.constprop.2+0x254>
 2006134:	e24b7001 	sub	r7, fp, #1
 2006138:	e3e0103b 	mvn	r1, #59	; 0x3b
 200613c:	e0288791 	mla	r8, r1, r7, r8
 2006140:	e1a0100b 	mov	r1, fp
 2006144:	ea000000 	b	200614c <ShowBrowsePage.constprop.2+0x234>
 2006148:	e2477001 	sub	r7, r7, #1
 200614c:	e1a00008 	mov	r0, r8
 2006150:	e288803c 	add	r8, r8, #60	; 0x3c
 2006154:	eb000975 	bl	2008730 <__divsi3>
 2006158:	e1a01007 	mov	r1, r7
 200615c:	e3500009 	cmp	r0, #9
 2006160:	dafffff8 	ble	2006148 <ShowBrowsePage.constprop.2+0x230>
 2006164:	e1a05000 	mov	r5, r0
 2006168:	e58d7004 	str	r7, [sp, #4]
 200616c:	e59d3000 	ldr	r3, [sp]
 2006170:	e3082889 	movw	r2, #34953	; 0x8889
 2006174:	e3482888 	movt	r2, #34952	; 0x8888
 2006178:	e3a0003c 	mov	r0, #60	; 0x3c
 200617c:	e2838001 	add	r8, r3, #1
 2006180:	e0c32298 	smull	r2, r3, r8, r2
 2006184:	e1a01fc8 	asr	r1, r8, #31
 2006188:	e0883003 	add	r3, r8, r3
 200618c:	e061b2c3 	rsb	fp, r1, r3, asr #5
 2006190:	e28b1001 	add	r1, fp, #1
 2006194:	e0608b90 	mls	r0, r0, fp, r8
 2006198:	eb000964 	bl	2008730 <__divsi3>
 200619c:	e3500009 	cmp	r0, #9
 20061a0:	e1a02000 	mov	r2, r0
 20061a4:	c58db000 	strgt	fp, [sp]
 20061a8:	ca00000d 	bgt	20061e4 <ShowBrowsePage.constprop.2+0x2cc>
 20061ac:	e24b7001 	sub	r7, fp, #1
 20061b0:	e3e0203b 	mvn	r2, #59	; 0x3b
 20061b4:	e1a0100b 	mov	r1, fp
 20061b8:	e0288792 	mla	r8, r2, r7, r8
 20061bc:	ea000000 	b	20061c4 <ShowBrowsePage.constprop.2+0x2ac>
 20061c0:	e2477001 	sub	r7, r7, #1
 20061c4:	e1a00008 	mov	r0, r8
 20061c8:	e288803c 	add	r8, r8, #60	; 0x3c
 20061cc:	eb000957 	bl	2008730 <__divsi3>
 20061d0:	e1a01007 	mov	r1, r7
 20061d4:	e3500009 	cmp	r0, #9
 20061d8:	dafffff8 	ble	20061c0 <ShowBrowsePage.constprop.2+0x2a8>
 20061dc:	e1a02000 	mov	r2, r0
 20061e0:	e58d7000 	str	r7, [sp]
 20061e4:	e59d3004 	ldr	r3, [sp, #4]
 20061e8:	e3a08014 	mov	r8, #20
 20061ec:	e58d200c 	str	r2, [sp, #12]
 20061f0:	e30c7a70 	movw	r7, #51824	; 0xca70
 20061f4:	e59d2000 	ldr	r2, [sp]
 20061f8:	e3407201 	movt	r7, #513	; 0x201
 20061fc:	e1a00083 	lsl	r0, r3, #1
 2006200:	e587305c 	str	r3, [r7, #92]	; 0x5c
 2006204:	e0000092 	mul	r0, r2, r0
 2006208:	e5872040 	str	r2, [r7, #64]	; 0x40
 200620c:	e0208890 	mla	r0, r0, r8, r8
 2006210:	ebffebd6 	bl	2001170 <malloc@plt>
 2006214:	e59d200c 	ldr	r2, [sp, #12]
 2006218:	e3500000 	cmp	r0, #0
 200621c:	e1a0b000 	mov	fp, r0
 2006220:	e5870008 	str	r0, [r7, #8]
 2006224:	0a0000fc 	beq	200661c <ShowBrowsePage.constprop.2+0x704>
 2006228:	e59d3030 	ldr	r3, [sp, #48]	; 0x30
 200622c:	e30011c2 	movw	r1, #450	; 0x1c2
 2006230:	e59d0000 	ldr	r0, [sp]
 2006234:	e5874028 	str	r4, [r7, #40]	; 0x28
 2006238:	e0844002 	add	r4, r4, r2
 200623c:	e0010391 	mul	r1, r1, r3
 2006240:	e3500000 	cmp	r0, #0
 2006244:	e0890005 	add	r0, r9, r5
 2006248:	e58d000c 	str	r0, [sp, #12]
 200624c:	e59d0010 	ldr	r0, [sp, #16]
 2006250:	e5879024 	str	r9, [r7, #36]	; 0x24
 2006254:	e587a02c 	str	sl, [r7, #44]	; 0x2c
 2006258:	e5870030 	str	r0, [r7, #48]	; 0x30
 200625c:	e587b03c 	str	fp, [r7, #60]	; 0x3c
 2006260:	e5873034 	str	r3, [r7, #52]	; 0x34
 2006264:	e5871038 	str	r1, [r7, #56]	; 0x38
 2006268:	da00002f 	ble	200632c <ShowBrowsePage.constprop.2+0x414>
 200626c:	e282903c 	add	r9, r2, #60	; 0x3c
 2006270:	e59d2004 	ldr	r2, [sp, #4]
 2006274:	e3a03028 	mov	r3, #40	; 0x28
 2006278:	e285503c 	add	r5, r5, #60	; 0x3c
 200627c:	e3a0a000 	mov	sl, #0
 2006280:	e58d8010 	str	r8, [sp, #16]
 2006284:	e023b293 	mla	r3, r3, r2, fp
 2006288:	e58d701c 	str	r7, [sp, #28]
 200628c:	e58d3014 	str	r3, [sp, #20]
 2006290:	e1a03082 	lsl	r3, r2, #1
 2006294:	e58d3018 	str	r3, [sp, #24]
 2006298:	e59d3004 	ldr	r3, [sp, #4]
 200629c:	e3530000 	cmp	r3, #0
 20062a0:	da000019 	ble	200630c <ShowBrowsePage.constprop.2+0x3f4>
 20062a4:	e59d3010 	ldr	r3, [sp, #16]
 20062a8:	e2848027 	add	r8, r4, #39	; 0x27
 20062ac:	e59d1014 	ldr	r1, [sp, #20]
 20062b0:	e2847028 	add	r7, r4, #40	; 0x28
 20062b4:	e59d200c 	ldr	r2, [sp, #12]
 20062b8:	e284e03b 	add	lr, r4, #59	; 0x3b
 20062bc:	e00c0693 	mul	ip, r3, r6
 20062c0:	e08b300c 	add	r3, fp, ip
 20062c4:	e081c00c 	add	ip, r1, ip
 20062c8:	e282100a 	add	r1, r2, #10
 20062cc:	e5832014 	str	r2, [r3, #20]
 20062d0:	e5831000 	str	r1, [r3]
 20062d4:	e2820031 	add	r0, r2, #49	; 0x31
 20062d8:	e5834004 	str	r4, [r3, #4]
 20062dc:	e282103b 	add	r1, r2, #59	; 0x3b
 20062e0:	e583800c 	str	r8, [r3, #12]
 20062e4:	e2833028 	add	r3, r3, #40	; 0x28
 20062e8:	e5037010 	str	r7, [r3, #-16]
 20062ec:	e0822005 	add	r2, r2, r5
 20062f0:	e503e008 	str	lr, [r3, #-8]
 20062f4:	e5030020 	str	r0, [r3, #-32]	; 0xffffffe0
 20062f8:	e503100c 	str	r1, [r3, #-12]
 20062fc:	e15c0003 	cmp	ip, r3
 2006300:	1afffff0 	bne	20062c8 <ShowBrowsePage.constprop.2+0x3b0>
 2006304:	e59d3018 	ldr	r3, [sp, #24]
 2006308:	e0836006 	add	r6, r3, r6
 200630c:	e59d3000 	ldr	r3, [sp]
 2006310:	e28aa001 	add	sl, sl, #1
 2006314:	e0844009 	add	r4, r4, r9
 2006318:	e15a0003 	cmp	sl, r3
 200631c:	1affffdd 	bne	2006298 <ShowBrowsePage.constprop.2+0x380>
 2006320:	e3a03014 	mov	r3, #20
 2006324:	e59d701c 	ldr	r7, [sp, #28]
 2006328:	e02bb693 	mla	fp, r3, r6, fp
 200632c:	e3a03000 	mov	r3, #0
 2006330:	e58b3000 	str	r3, [fp]
 2006334:	e58b3008 	str	r3, [fp, #8]
 2006338:	e58b3004 	str	r3, [fp, #4]
 200633c:	e58b300c 	str	r3, [fp, #12]
 2006340:	e58b3010 	str	r3, [fp, #16]
 2006344:	e5973020 	ldr	r3, [r7, #32]
 2006348:	e3530000 	cmp	r3, #0
 200634c:	1affff06 	bne	2005f6c <ShowBrowsePage.constprop.2+0x54>
 2006350:	e28d202c 	add	r2, sp, #44	; 0x2c
 2006354:	e28d1028 	add	r1, sp, #40	; 0x28
 2006358:	e28d0024 	add	r0, sp, #36	; 0x24
 200635c:	e597403c 	ldr	r4, [r7, #60]	; 0x3c
 2006360:	ebffecff 	bl	2001764 <GetDispResolution>
 2006364:	e5975038 	ldr	r5, [r7, #56]	; 0x38
 2006368:	e59d302c 	ldr	r3, [sp, #44]	; 0x2c
 200636c:	e1a00005 	mov	r0, r5
 2006370:	e5873014 	str	r3, [r7, #20]
 2006374:	ebffeb7d 	bl	2001170 <malloc@plt>
 2006378:	e3500000 	cmp	r0, #0
 200637c:	e5870020 	str	r0, [r7, #32]
 2006380:	0afffef9 	beq	2005f6c <ShowBrowsePage.constprop.2+0x54>
 2006384:	e59d302c 	ldr	r3, [sp, #44]	; 0x2c
 2006388:	e1a00005 	mov	r0, r5
 200638c:	e5873068 	str	r3, [r7, #104]	; 0x68
 2006390:	ebffeb76 	bl	2001170 <malloc@plt>
 2006394:	e3500000 	cmp	r0, #0
 2006398:	e5870074 	str	r0, [r7, #116]	; 0x74
 200639c:	0afffef2 	beq	2005f6c <ShowBrowsePage.constprop.2+0x54>
 20063a0:	e59d302c 	ldr	r3, [sp, #44]	; 0x2c
 20063a4:	e1a00005 	mov	r0, r5
 20063a8:	e587304c 	str	r3, [r7, #76]	; 0x4c
 20063ac:	ebffeb6f 	bl	2001170 <malloc@plt>
 20063b0:	e3500000 	cmp	r0, #0
 20063b4:	e5870058 	str	r0, [r7, #88]	; 0x58
 20063b8:	0afffeeb 	beq	2005f6c <ShowBrowsePage.constprop.2+0x54>
 20063bc:	e30b00ec 	movw	r0, #45292	; 0xb0ec
 20063c0:	e28d1030 	add	r1, sp, #48	; 0x30
 20063c4:	e3400200 	movt	r0, #512	; 0x200
 20063c8:	ebfff4bf 	bl	20036cc <GetPixelDatasForIcon>
 20063cc:	e3500000 	cmp	r0, #0
 20063d0:	1a00007f 	bne	20065d4 <ShowBrowsePage.constprop.2+0x6bc>
 20063d4:	e5942000 	ldr	r2, [r4]
 20063d8:	e28d0030 	add	r0, sp, #48	; 0x30
 20063dc:	e5941008 	ldr	r1, [r4, #8]
 20063e0:	e5973014 	ldr	r3, [r7, #20]
 20063e4:	e0411002 	sub	r1, r1, r2
 20063e8:	e594200c 	ldr	r2, [r4, #12]
 20063ec:	e2811001 	add	r1, r1, #1
 20063f0:	e587100c 	str	r1, [r7, #12]
 20063f4:	e0030193 	mul	r3, r3, r1
 20063f8:	e5941004 	ldr	r1, [r4, #4]
 20063fc:	e0422001 	sub	r2, r2, r1
 2006400:	e3530000 	cmp	r3, #0
 2006404:	e2831007 	add	r1, r3, #7
 2006408:	e2822001 	add	r2, r2, #1
 200640c:	e5872010 	str	r2, [r7, #16]
 2006410:	b1a03001 	movlt	r3, r1
 2006414:	e59f1210 	ldr	r1, [pc, #528]	; 200662c <ShowBrowsePage.constprop.2+0x714>
 2006418:	e1a031c3 	asr	r3, r3, #3
 200641c:	e5873018 	str	r3, [r7, #24]
 2006420:	e0030293 	mul	r3, r3, r2
 2006424:	e587301c 	str	r3, [r7, #28]
 2006428:	ebfff86f 	bl	20045ec <PicZoom>
 200642c:	e28d0030 	add	r0, sp, #48	; 0x30
 2006430:	ebfff4ee 	bl	20037f0 <FreePixelDatasForIcon>
 2006434:	e28d1030 	add	r1, sp, #48	; 0x30
 2006438:	e30b00fc 	movw	r0, #45308	; 0xb0fc
 200643c:	e3400200 	movt	r0, #512	; 0x200
 2006440:	ebfff4a1 	bl	20036cc <GetPixelDatasForIcon>
 2006444:	e3500000 	cmp	r0, #0
 2006448:	1a00006d 	bne	2006604 <ShowBrowsePage.constprop.2+0x6ec>
 200644c:	e5942000 	ldr	r2, [r4]
 2006450:	e28d0030 	add	r0, sp, #48	; 0x30
 2006454:	e5941008 	ldr	r1, [r4, #8]
 2006458:	e5973068 	ldr	r3, [r7, #104]	; 0x68
 200645c:	e0411002 	sub	r1, r1, r2
 2006460:	e594200c 	ldr	r2, [r4, #12]
 2006464:	e2811001 	add	r1, r1, #1
 2006468:	e5871060 	str	r1, [r7, #96]	; 0x60
 200646c:	e0030193 	mul	r3, r3, r1
 2006470:	e5941004 	ldr	r1, [r4, #4]
 2006474:	e0422001 	sub	r2, r2, r1
 2006478:	e3530000 	cmp	r3, #0
 200647c:	e2831007 	add	r1, r3, #7
 2006480:	e2822001 	add	r2, r2, #1
 2006484:	e5872064 	str	r2, [r7, #100]	; 0x64
 2006488:	b1a03001 	movlt	r3, r1
 200648c:	e59f119c 	ldr	r1, [pc, #412]	; 2006630 <ShowBrowsePage.constprop.2+0x718>
 2006490:	e1a031c3 	asr	r3, r3, #3
 2006494:	e587306c 	str	r3, [r7, #108]	; 0x6c
 2006498:	e0030293 	mul	r3, r3, r2
 200649c:	e5873070 	str	r3, [r7, #112]	; 0x70
 20064a0:	ebfff851 	bl	20045ec <PicZoom>
 20064a4:	e28d0030 	add	r0, sp, #48	; 0x30
 20064a8:	ebfff4d0 	bl	20037f0 <FreePixelDatasForIcon>
 20064ac:	e28d1030 	add	r1, sp, #48	; 0x30
 20064b0:	e30b010c 	movw	r0, #45324	; 0xb10c
 20064b4:	e3400200 	movt	r0, #512	; 0x200
 20064b8:	ebfff483 	bl	20036cc <GetPixelDatasForIcon>
 20064bc:	e3500000 	cmp	r0, #0
 20064c0:	1a000049 	bne	20065ec <ShowBrowsePage.constprop.2+0x6d4>
 20064c4:	e597100c 	ldr	r1, [r7, #12]
 20064c8:	e28d0030 	add	r0, sp, #48	; 0x30
 20064cc:	e5973014 	ldr	r3, [r7, #20]
 20064d0:	e594200c 	ldr	r2, [r4, #12]
 20064d4:	e594c008 	ldr	ip, [r4, #8]
 20064d8:	e0030193 	mul	r3, r3, r1
 20064dc:	e5941004 	ldr	r1, [r4, #4]
 20064e0:	e0422001 	sub	r2, r2, r1
 20064e4:	e3530000 	cmp	r3, #0
 20064e8:	e2831007 	add	r1, r3, #7
 20064ec:	e2822001 	add	r2, r2, #1
 20064f0:	b1a03001 	movlt	r3, r1
 20064f4:	e5941000 	ldr	r1, [r4]
 20064f8:	e1a031c3 	asr	r3, r3, #3
 20064fc:	e5873050 	str	r3, [r7, #80]	; 0x50
 2006500:	e04cc001 	sub	ip, ip, r1
 2006504:	e59f1128 	ldr	r1, [pc, #296]	; 2006634 <ShowBrowsePage.constprop.2+0x71c>
 2006508:	e0030293 	mul	r3, r3, r2
 200650c:	e5872048 	str	r2, [r7, #72]	; 0x48
 2006510:	e28c2001 	add	r2, ip, #1
 2006514:	e5872044 	str	r2, [r7, #68]	; 0x44
 2006518:	e5873054 	str	r3, [r7, #84]	; 0x54
 200651c:	ebfff832 	bl	20045ec <PicZoom>
 2006520:	e28d0030 	add	r0, sp, #48	; 0x30
 2006524:	ebfff4b1 	bl	20037f0 <FreePixelDatasForIcon>
 2006528:	eafffe8f 	b	2005f6c <ShowBrowsePage.constprop.2+0x54>
 200652c:	e2823003 	add	r3, r2, #3
 2006530:	e3520000 	cmp	r2, #0
 2006534:	e5856004 	str	r6, [r5, #4]
 2006538:	b1a02003 	movlt	r2, r3
 200653c:	e5856000 	str	r6, [r5]
 2006540:	e1a03142 	asr	r3, r2, #2
 2006544:	e5853014 	str	r3, [r5, #20]
 2006548:	e2432001 	sub	r2, r3, #1
 200654c:	e5856018 	str	r6, [r5, #24]
 2006550:	e1a00083 	lsl	r0, r3, #1
 2006554:	e585602c 	str	r6, [r5, #44]	; 0x2c
 2006558:	e0831000 	add	r1, r3, r0
 200655c:	e5850028 	str	r0, [r5, #40]	; 0x28
 2006560:	e0833001 	add	r3, r3, r1
 2006564:	e585103c 	str	r1, [r5, #60]	; 0x3c
 2006568:	e2400001 	sub	r0, r0, #1
 200656c:	e2433001 	sub	r3, r3, #1
 2006570:	e2411001 	sub	r1, r1, #1
 2006574:	e5856040 	str	r6, [r5, #64]	; 0x40
 2006578:	e585001c 	str	r0, [r5, #28]
 200657c:	e5853044 	str	r3, [r5, #68]	; 0x44
 2006580:	e5851030 	str	r1, [r5, #48]	; 0x30
 2006584:	e585200c 	str	r2, [r5, #12]
 2006588:	e5852008 	str	r2, [r5, #8]
 200658c:	e5852020 	str	r2, [r5, #32]
 2006590:	e5852034 	str	r2, [r5, #52]	; 0x34
 2006594:	e5852048 	str	r2, [r5, #72]	; 0x48
 2006598:	eafffea8 	b	2006040 <ShowBrowsePage.constprop.2+0x128>
 200659c:	e30b00c4 	movw	r0, #45252	; 0xb0c4
 20065a0:	e3400200 	movt	r0, #512	; 0x200
 20065a4:	ebfff2b1 	bl	2003070 <DebugPrint>
 20065a8:	e28dd04c 	add	sp, sp, #76	; 0x4c
 20065ac:	e8bd8ff0 	pop	{r4, r5, r6, r7, r8, r9, sl, fp, pc}
 20065b0:	e5943024 	ldr	r3, [r4, #36]	; 0x24
 20065b4:	e2492001 	sub	r2, r9, #1
 20065b8:	e24aa001 	sub	sl, sl, #1
 20065bc:	e58d2010 	str	r2, [sp, #16]
 20065c0:	e2839001 	add	r9, r3, #1
 20065c4:	e3a04000 	mov	r4, #0
 20065c8:	e04a3009 	sub	r3, sl, r9
 20065cc:	e58d2000 	str	r2, [sp]
 20065d0:	eafffec8 	b	20060f8 <ShowBrowsePage.constprop.2+0x1e0>
 20065d4:	e30b10ec 	movw	r1, #45292	; 0xb0ec
 20065d8:	e30a0f10 	movw	r0, #44816	; 0xaf10
 20065dc:	e3401200 	movt	r1, #512	; 0x200
 20065e0:	e3400200 	movt	r0, #512	; 0x200
 20065e4:	ebfff2a1 	bl	2003070 <DebugPrint>
 20065e8:	eafffe5f 	b	2005f6c <ShowBrowsePage.constprop.2+0x54>
 20065ec:	e30b110c 	movw	r1, #45324	; 0xb10c
 20065f0:	e30a0f10 	movw	r0, #44816	; 0xaf10
 20065f4:	e3401200 	movt	r1, #512	; 0x200
 20065f8:	e3400200 	movt	r0, #512	; 0x200
 20065fc:	ebfff29b 	bl	2003070 <DebugPrint>
 2006600:	eafffe59 	b	2005f6c <ShowBrowsePage.constprop.2+0x54>
 2006604:	e30b10fc 	movw	r1, #45308	; 0xb0fc
 2006608:	e30a0f10 	movw	r0, #44816	; 0xaf10
 200660c:	e3401200 	movt	r1, #512	; 0x200
 2006610:	e3400200 	movt	r0, #512	; 0x200
 2006614:	ebfff295 	bl	2003070 <DebugPrint>
 2006618:	eafffe53 	b	2005f6c <ShowBrowsePage.constprop.2+0x54>
 200661c:	e30a0f00 	movw	r0, #44800	; 0xaf00
 2006620:	e3400200 	movt	r0, #512	; 0x200
 2006624:	ebfff291 	bl	2003070 <DebugPrint>
 2006628:	eafffe4c 	b	2005f60 <ShowBrowsePage.constprop.2+0x48>
 200662c:	0201ca7c 	andeq	ip, r1, #124, 20	; 0x7c000
 2006630:	0201cad0 	andeq	ip, r1, #208, 20	; 0xd0000
 2006634:	0201cab4 	andeq	ip, r1, #180, 20	; 0xb4000

02006638 <BrowsePageRun>:
 2006638:	e92d4ff0 	push	{r4, r5, r6, r7, r8, r9, sl, fp, lr}
 200663c:	e24ddfa1 	sub	sp, sp, #644	; 0x284
 2006640:	e5903000 	ldr	r3, [r0]
 2006644:	e28da050 	add	sl, sp, #80	; 0x50
 2006648:	e30a0fa4 	movw	r0, #44964	; 0xafa4
 200664c:	e3400200 	movt	r0, #512	; 0x200
 2006650:	e3a02000 	mov	r2, #0
 2006654:	e58d3014 	str	r3, [sp, #20]
 2006658:	e3a03000 	mov	r3, #0
 200665c:	e1ca20f0 	strd	r2, [sl]
 2006660:	e1ca20f8 	strd	r2, [sl, #8]
 2006664:	ebfff8dd 	bl	20049e0 <ID>
 2006668:	e1a0b000 	mov	fp, r0
 200666c:	ebffecf2 	bl	2001a3c <GetDevVideoMem>
 2006670:	e59f25f4 	ldr	r2, [pc, #1524]	; 2006c6c <BrowsePageRun+0x634>
 2006674:	e2421078 	sub	r1, r2, #120	; 0x78
 2006678:	e58d0020 	str	r0, [sp, #32]
 200667c:	e59f05ec 	ldr	r0, [pc, #1516]	; 2006c70 <BrowsePageRun+0x638>
 2006680:	eb000658 	bl	2007fe8 <GetDirContents>
 2006684:	e3500000 	cmp	r0, #0
 2006688:	1a00016d 	bne	2006c44 <BrowsePageRun+0x60c>
 200668c:	e30c9a70 	movw	r9, #51824	; 0xca70
 2006690:	e28d5028 	add	r5, sp, #40	; 0x28
 2006694:	e3409201 	movt	r9, #513	; 0x201
 2006698:	e30c8420 	movw	r8, #50208	; 0xc420
 200669c:	e3e07000 	mvn	r7, #0
 20066a0:	e3408201 	movt	r8, #513	; 0x201
 20066a4:	e1a06000 	mov	r6, r0
 20066a8:	e58d0018 	str	r0, [sp, #24]
 20066ac:	ebfffe19 	bl	2005f18 <ShowBrowsePage.constprop.2>
 20066b0:	e2883080 	add	r3, r8, #128	; 0x80
 20066b4:	e58d3024 	str	r3, [sp, #36]	; 0x24
 20066b8:	e1a01005 	mov	r1, r5
 20066bc:	e1a00008 	mov	r0, r8
 20066c0:	ebfff934 	bl	2004b98 <GenericGetInputEvent>
 20066c4:	e3700001 	cmn	r0, #1
 20066c8:	e1a04000 	mov	r4, r0
 20066cc:	159d3048 	ldrne	r3, [sp, #72]	; 0x48
 20066d0:	0a00002e 	beq	2006790 <BrowsePageRun+0x158>
 20066d4:	e3530000 	cmp	r3, #0
 20066d8:	1a00000b 	bne	200670c <BrowsePageRun+0xd4>
 20066dc:	e3560000 	cmp	r6, #0
 20066e0:	0afffff4 	beq	20066b8 <BrowsePageRun+0x80>
 20066e4:	e3570ffa 	cmp	r7, #1000	; 0x3e8
 20066e8:	aa00004f 	bge	200682c <BrowsePageRun+0x1f4>
 20066ec:	e59d3014 	ldr	r3, [sp, #20]
 20066f0:	e153000b 	cmp	r3, fp
 20066f4:	03570001 	cmpeq	r7, #1
 20066f8:	1a0000f4 	bne	2006ad0 <BrowsePageRun+0x498>
 20066fc:	e1570004 	cmp	r7, r4
 2006700:	0a000093 	beq	2006954 <BrowsePageRun+0x31c>
 2006704:	e3a06000 	mov	r6, #0
 2006708:	eaffffea 	b	20066b8 <BrowsePageRun+0x80>
 200670c:	e3560000 	cmp	r6, #0
 2006710:	1a00001a 	bne	2006780 <BrowsePageRun+0x148>
 2006714:	e1a0e005 	mov	lr, r5
 2006718:	e1a0c00a 	mov	ip, sl
 200671c:	e8be000f 	ldm	lr!, {r0, r1, r2, r3}
 2006720:	e3540ffa 	cmp	r4, #1000	; 0x3e8
 2006724:	e8ac000f 	stmia	ip!, {r0, r1, r2, r3}
 2006728:	e8be000f 	ldm	lr!, {r0, r1, r2, r3}
 200672c:	e8ac000f 	stmia	ip!, {r0, r1, r2, r3}
 2006730:	e89e0003 	ldm	lr, {r0, r1}
 2006734:	e88c0003 	stm	ip, {r0, r1}
 2006738:	aa00006e 	bge	20068f8 <BrowsePageRun+0x2c0>
 200673c:	e59d3014 	ldr	r3, [sp, #20]
 2006740:	e153000b 	cmp	r3, fp
 2006744:	1a000066 	bne	20068e4 <BrowsePageRun+0x2ac>
 2006748:	e2543001 	subs	r3, r4, #1
 200674c:	e59d2018 	ldr	r2, [sp, #24]
 2006750:	13a03001 	movne	r3, #1
 2006754:	e3520000 	cmp	r2, #0
 2006758:	03a03001 	moveq	r3, #1
 200675c:	e3530000 	cmp	r3, #0
 2006760:	03a07001 	moveq	r7, #1
 2006764:	01a06007 	moveq	r6, r7
 2006768:	0affffd2 	beq	20066b8 <BrowsePageRun+0x80>
 200676c:	e59f3500 	ldr	r3, [pc, #1280]	; 2006c74 <BrowsePageRun+0x63c>
 2006770:	e3a00014 	mov	r0, #20
 2006774:	e1a07004 	mov	r7, r4
 2006778:	e0203490 	mla	r0, r0, r4, r3
 200677c:	ebfff5e8 	bl	2003f24 <PressButton>
 2006780:	e3570000 	cmp	r7, #0
 2006784:	0a00002e 	beq	2006844 <BrowsePageRun+0x20c>
 2006788:	e3a06001 	mov	r6, #1
 200678c:	eaffffc9 	b	20066b8 <BrowsePageRun+0x80>
 2006790:	e599303c 	ldr	r3, [r9, #60]	; 0x3c
 2006794:	e593200c 	ldr	r2, [r3, #12]
 2006798:	e3520000 	cmp	r2, #0
 200679c:	0a000016 	beq	20067fc <BrowsePageRun+0x1c4>
 20067a0:	e59dc03c 	ldr	ip, [sp, #60]	; 0x3c
 20067a4:	e2833014 	add	r3, r3, #20
 20067a8:	e59de040 	ldr	lr, [sp, #64]	; 0x40
 20067ac:	e3a01000 	mov	r1, #0
 20067b0:	e5130014 	ldr	r0, [r3, #-20]	; 0xffffffec
 20067b4:	e15c0000 	cmp	ip, r0
 20067b8:	ba00000a 	blt	20067e8 <BrowsePageRun+0x1b0>
 20067bc:	e513000c 	ldr	r0, [r3, #-12]
 20067c0:	e15c0000 	cmp	ip, r0
 20067c4:	ca000007 	bgt	20067e8 <BrowsePageRun+0x1b0>
 20067c8:	e5130010 	ldr	r0, [r3, #-16]
 20067cc:	e15e0000 	cmp	lr, r0
 20067d0:	b3a00000 	movlt	r0, #0
 20067d4:	a3a00001 	movge	r0, #1
 20067d8:	e15e0002 	cmp	lr, r2
 20067dc:	c3a00000 	movgt	r0, #0
 20067e0:	e3500000 	cmp	r0, #0
 20067e4:	1a000008 	bne	200680c <BrowsePageRun+0x1d4>
 20067e8:	e2833014 	add	r3, r3, #20
 20067ec:	e5132008 	ldr	r2, [r3, #-8]
 20067f0:	e2811001 	add	r1, r1, #1
 20067f4:	e3520000 	cmp	r2, #0
 20067f8:	1affffec 	bne	20067b0 <BrowsePageRun+0x178>
 20067fc:	e59d3048 	ldr	r3, [sp, #72]	; 0x48
 2006800:	e3530000 	cmp	r3, #0
 2006804:	1affffab 	bne	20066b8 <BrowsePageRun+0x80>
 2006808:	eaffffb3 	b	20066dc <BrowsePageRun+0xa4>
 200680c:	e5992004 	ldr	r2, [r9, #4]
 2006810:	e5990078 	ldr	r0, [r9, #120]	; 0x78
 2006814:	e08220c1 	add	r2, r2, r1, asr #1
 2006818:	e59d3048 	ldr	r3, [sp, #72]	; 0x48
 200681c:	e1520000 	cmp	r2, r0
 2006820:	aafffff6 	bge	2006800 <BrowsePageRun+0x1c8>
 2006824:	e2814ffa 	add	r4, r1, #1000	; 0x3e8
 2006828:	eaffffa9 	b	20066d4 <BrowsePageRun+0x9c>
 200682c:	e1570004 	cmp	r7, r4
 2006830:	e2470ffa 	sub	r0, r7, #1000	; 0x3e8
 2006834:	0a00000d 	beq	2006870 <BrowsePageRun+0x238>
 2006838:	e3a06000 	mov	r6, #0
 200683c:	ebfffd3d 	bl	2005d38 <DeSelectDirFileIcon>
 2006840:	eaffff9c 	b	20066b8 <BrowsePageRun+0x80>
 2006844:	e895000f 	ldm	r5, {r0, r1, r2, r3}
 2006848:	e88d000f 	stm	sp, {r0, r1, r2, r3}
 200684c:	e89a000f 	ldm	sl, {r0, r1, r2, r3}
 2006850:	ebfff8bd 	bl	2004b4c <TimeMSBetween>
 2006854:	e3500e7d 	cmp	r0, #2000	; 0x7d0
 2006858:	daffffca 	ble	2006788 <BrowsePageRun+0x150>
 200685c:	e5991078 	ldr	r1, [r9, #120]	; 0x78
 2006860:	e5990000 	ldr	r0, [r9]
 2006864:	eb000688 	bl	200828c <FreeDirContents>
 2006868:	e28ddfa1 	add	sp, sp, #644	; 0x284
 200686c:	e8bd8ff0 	pop	{r4, r5, r6, r7, r8, r9, sl, fp, pc}
 2006870:	e59d3018 	ldr	r3, [sp, #24]
 2006874:	e1a040c0 	asr	r4, r0, #1
 2006878:	e3530000 	cmp	r3, #0
 200687c:	0a000098 	beq	2006ae4 <BrowsePageRun+0x4ac>
 2006880:	ebfffd2c 	bl	2005d38 <DeSelectDirFileIcon>
 2006884:	e8990048 	ldm	r9, {r3, r6}
 2006888:	e0846006 	add	r6, r4, r6
 200688c:	e7933106 	ldr	r3, [r3, r6, lsl #2]
 2006890:	e5934100 	ldr	r4, [r3, #256]	; 0x100
 2006894:	e3540000 	cmp	r4, #0
 2006898:	1affff99 	bne	2006704 <BrowsePageRun+0xcc>
 200689c:	e59f03d4 	ldr	r0, [pc, #980]	; 2006c78 <BrowsePageRun+0x640>
 20068a0:	ebfff59e 	bl	2003f20 <ReleaseButton>
 20068a4:	e5991000 	ldr	r1, [r9]
 20068a8:	e28d007c 	add	r0, sp, #124	; 0x7c
 20068ac:	e59d3024 	ldr	r3, [sp, #36]	; 0x24
 20068b0:	e30a2dbc 	movw	r2, #44476	; 0xadbc
 20068b4:	e3402200 	movt	r2, #512	; 0x200
 20068b8:	e791c106 	ldr	ip, [r1, r6, lsl #2]
 20068bc:	e3a01c01 	mov	r1, #256	; 0x100
 20068c0:	e58d4018 	str	r4, [sp, #24]
 20068c4:	e1a06004 	mov	r6, r4
 20068c8:	e58dc000 	str	ip, [sp]
 20068cc:	ebffea0c 	bl	2001104 <snprintf@plt>
 20068d0:	e28d107c 	add	r1, sp, #124	; 0x7c
 20068d4:	e59f03a0 	ldr	r0, [pc, #928]	; 2006c7c <BrowsePageRun+0x644>
 20068d8:	e5cd417b 	strb	r4, [sp, #379]	; 0x17b
 20068dc:	ebffea2c 	bl	2001194 <strcpy@plt>
 20068e0:	eaffff74 	b	20066b8 <BrowsePageRun+0x80>
 20068e4:	e59d3018 	ldr	r3, [sp, #24]
 20068e8:	e3530000 	cmp	r3, #0
 20068ec:	11a07004 	movne	r7, r4
 20068f0:	1affffa2 	bne	2006780 <BrowsePageRun+0x148>
 20068f4:	eaffff9c 	b	200676c <BrowsePageRun+0x134>
 20068f8:	ebffec4f 	bl	2001a3c <GetDevVideoMem>
 20068fc:	e8991008 	ldm	r9, {r3, ip}
 2006900:	e2442ffa 	sub	r2, r4, #1000	; 0x3e8
 2006904:	e3c21001 	bic	r1, r2, #1
 2006908:	e08c20c2 	add	r2, ip, r2, asr #1
 200690c:	e3a0c014 	mov	ip, #20
 2006910:	e001019c 	mul	r1, ip, r1
 2006914:	e7932102 	ldr	r2, [r3, r2, lsl #2]
 2006918:	e5922100 	ldr	r2, [r2, #256]	; 0x100
 200691c:	e3520000 	cmp	r2, #0
 2006920:	0a000097 	beq	2006b84 <BrowsePageRun+0x54c>
 2006924:	e5990008 	ldr	r0, [r9, #8]
 2006928:	e1a07004 	mov	r7, r4
 200692c:	e58d101c 	str	r1, [sp, #28]
 2006930:	e3a06001 	mov	r6, #1
 2006934:	e0800001 	add	r0, r0, r1
 2006938:	ebfff579 	bl	2003f24 <PressButton>
 200693c:	e59d101c 	ldr	r1, [sp, #28]
 2006940:	e5990008 	ldr	r0, [r9, #8]
 2006944:	e2811014 	add	r1, r1, #20
 2006948:	e0800001 	add	r0, r0, r1
 200694c:	ebfff574 	bl	2003f24 <PressButton>
 2006950:	eaffff58 	b	20066b8 <BrowsePageRun+0x80>
 2006954:	e3570003 	cmp	r7, #3
 2006958:	979ff107 	ldrls	pc, [pc, r7, lsl #2]
 200695c:	eaffff68 	b	2006704 <BrowsePageRun+0xcc>
 2006960:	02006a08 	andeq	r6, r0, #8, 20	; 0x8000
 2006964:	020069cc 	andeq	r6, r0, #204, 18	; 0x330000
 2006968:	02006998 	andeq	r6, r0, #152, 18	; 0x260000
 200696c:	02006970 	andeq	r6, r0, #112, 18	; 0x1c0000
 2006970:	e5993004 	ldr	r3, [r9, #4]
 2006974:	e5990040 	ldr	r0, [r9, #64]	; 0x40
 2006978:	e599205c 	ldr	r2, [r9, #92]	; 0x5c
 200697c:	e5991078 	ldr	r1, [r9, #120]	; 0x78
 2006980:	e0203092 	mla	r0, r2, r0, r3
 2006984:	e1500001 	cmp	r0, r1
 2006988:	e5890004 	str	r0, [r9, #4]
 200698c:	ba0000b1 	blt	2006c58 <BrowsePageRun+0x620>
 2006990:	e5893004 	str	r3, [r9, #4]
 2006994:	eaffff5a 	b	2006704 <BrowsePageRun+0xcc>
 2006998:	e5993004 	ldr	r3, [r9, #4]
 200699c:	e5990040 	ldr	r0, [r9, #64]	; 0x40
 20069a0:	e599205c 	ldr	r2, [r9, #92]	; 0x5c
 20069a4:	e0603092 	mls	r0, r2, r0, r3
 20069a8:	e3500000 	cmp	r0, #0
 20069ac:	e5890004 	str	r0, [r9, #4]
 20069b0:	bafffff6 	blt	2006990 <BrowsePageRun+0x358>
 20069b4:	e59d3020 	ldr	r3, [sp, #32]
 20069b8:	e3a06000 	mov	r6, #0
 20069bc:	e5992000 	ldr	r2, [r9]
 20069c0:	e5991078 	ldr	r1, [r9, #120]	; 0x78
 20069c4:	ebfffcfa 	bl	2005db4 <GenerateBrowsePageDirAndFile>
 20069c8:	eaffff3a 	b	20066b8 <BrowsePageRun+0x80>
 20069cc:	e59d3014 	ldr	r3, [sp, #20]
 20069d0:	e153000b 	cmp	r3, fp
 20069d4:	1affff4a 	bne	2006704 <BrowsePageRun+0xcc>
 20069d8:	e59d3018 	ldr	r3, [sp, #24]
 20069dc:	e3530000 	cmp	r3, #0
 20069e0:	059d6018 	ldreq	r6, [sp, #24]
 20069e4:	058d7018 	streq	r7, [sp, #24]
 20069e8:	0affff32 	beq	20066b8 <BrowsePageRun+0x80>
 20069ec:	e1a07003 	mov	r7, r3
 20069f0:	e59f0280 	ldr	r0, [pc, #640]	; 2006c78 <BrowsePageRun+0x640>
 20069f4:	e3a03000 	mov	r3, #0
 20069f8:	e58d3018 	str	r3, [sp, #24]
 20069fc:	e1a06003 	mov	r6, r3
 2006a00:	ebfff546 	bl	2003f20 <ReleaseButton>
 2006a04:	eaffff2b 	b	20066b8 <BrowsePageRun+0x80>
 2006a08:	e59f4260 	ldr	r4, [pc, #608]	; 2006c70 <BrowsePageRun+0x638>
 2006a0c:	e30b1130 	movw	r1, #45360	; 0xb130
 2006a10:	e3401200 	movt	r1, #512	; 0x200
 2006a14:	e1a00004 	mov	r0, r4
 2006a18:	ebffe9bf 	bl	200111c <strcmp@plt>
 2006a1c:	e3500000 	cmp	r0, #0
 2006a20:	0affff8d 	beq	200685c <BrowsePageRun+0x224>
 2006a24:	e3a03fce 	mov	r3, #824	; 0x338
 2006a28:	e58d4000 	str	r4, [sp]
 2006a2c:	e30a2a4c 	movw	r2, #43596	; 0xaa4c
 2006a30:	e30b1134 	movw	r1, #45364	; 0xb134
 2006a34:	e3402200 	movt	r2, #512	; 0x200
 2006a38:	e3401200 	movt	r1, #512	; 0x200
 2006a3c:	e30b0144 	movw	r0, #45380	; 0xb144
 2006a40:	e3400200 	movt	r0, #512	; 0x200
 2006a44:	ebffe9ff 	bl	2001248 <printf@plt>
 2006a48:	e3a0102f 	mov	r1, #47	; 0x2f
 2006a4c:	e1a00004 	mov	r0, r4
 2006a50:	ebffe9d2 	bl	20011a0 <strrchr@plt>
 2006a54:	e3a03000 	mov	r3, #0
 2006a58:	e5991078 	ldr	r1, [r9, #120]	; 0x78
 2006a5c:	e5c03000 	strb	r3, [r0]
 2006a60:	e5d83080 	ldrb	r3, [r8, #128]	; 0x80
 2006a64:	e5990000 	ldr	r0, [r9]
 2006a68:	e3530000 	cmp	r3, #0
 2006a6c:	03a0302f 	moveq	r3, #47	; 0x2f
 2006a70:	01c430b0 	strheq	r3, [r4]
 2006a74:	eb000604 	bl	200828c <FreeDirContents>
 2006a78:	e300333f 	movw	r3, #831	; 0x33f
 2006a7c:	e58d4000 	str	r4, [sp]
 2006a80:	e30a2a4c 	movw	r2, #43596	; 0xaa4c
 2006a84:	e30b1134 	movw	r1, #45364	; 0xb134
 2006a88:	e3402200 	movt	r2, #512	; 0x200
 2006a8c:	e3401200 	movt	r1, #512	; 0x200
 2006a90:	e30b0144 	movw	r0, #45380	; 0xb144
 2006a94:	e3400200 	movt	r0, #512	; 0x200
 2006a98:	ebffe9ea 	bl	2001248 <printf@plt>
 2006a9c:	e59f21c8 	ldr	r2, [pc, #456]	; 2006c6c <BrowsePageRun+0x634>
 2006aa0:	e59f01c8 	ldr	r0, [pc, #456]	; 2006c70 <BrowsePageRun+0x638>
 2006aa4:	e2421078 	sub	r1, r2, #120	; 0x78
 2006aa8:	eb00054e 	bl	2007fe8 <GetDirContents>
 2006aac:	e2506000 	subs	r6, r0, #0
 2006ab0:	1a000063 	bne	2006c44 <BrowsePageRun+0x60c>
 2006ab4:	e59d3020 	ldr	r3, [sp, #32]
 2006ab8:	e1a07006 	mov	r7, r6
 2006abc:	e5992000 	ldr	r2, [r9]
 2006ac0:	e5991078 	ldr	r1, [r9, #120]	; 0x78
 2006ac4:	e5896004 	str	r6, [r9, #4]
 2006ac8:	ebfffcb9 	bl	2005db4 <GenerateBrowsePageDirAndFile>
 2006acc:	eafffef9 	b	20066b8 <BrowsePageRun+0x80>
 2006ad0:	e59f319c 	ldr	r3, [pc, #412]	; 2006c74 <BrowsePageRun+0x63c>
 2006ad4:	e3a00014 	mov	r0, #20
 2006ad8:	e0203790 	mla	r0, r0, r7, r3
 2006adc:	ebfff50f 	bl	2003f20 <ReleaseButton>
 2006ae0:	eaffff05 	b	20066fc <BrowsePageRun+0xc4>
 2006ae4:	ebfffc93 	bl	2005d38 <DeSelectDirFileIcon>
 2006ae8:	e5992004 	ldr	r2, [r9, #4]
 2006aec:	e5993000 	ldr	r3, [r9]
 2006af0:	e0844002 	add	r4, r4, r2
 2006af4:	e7933104 	ldr	r3, [r3, r4, lsl #2]
 2006af8:	e5932100 	ldr	r2, [r3, #256]	; 0x100
 2006afc:	e3520000 	cmp	r2, #0
 2006b00:	0a000029 	beq	2006bac <BrowsePageRun+0x574>
 2006b04:	e59d2014 	ldr	r2, [sp, #20]
 2006b08:	e152000b 	cmp	r2, fp
 2006b0c:	0afffefc 	beq	2006704 <BrowsePageRun+0xcc>
 2006b10:	e3a01c01 	mov	r1, #256	; 0x100
 2006b14:	e58d3000 	str	r3, [sp]
 2006b18:	e30a2dbc 	movw	r2, #44476	; 0xadbc
 2006b1c:	e59f314c 	ldr	r3, [pc, #332]	; 2006c70 <BrowsePageRun+0x638>
 2006b20:	e3402200 	movt	r2, #512	; 0x200
 2006b24:	e28d0d06 	add	r0, sp, #384	; 0x180
 2006b28:	ebffe975 	bl	2001104 <snprintf@plt>
 2006b2c:	e59d3018 	ldr	r3, [sp, #24]
 2006b30:	e28d0d06 	add	r0, sp, #384	; 0x180
 2006b34:	e5cd327f 	strb	r3, [sp, #639]	; 0x27f
 2006b38:	eb0004a4 	bl	2007dd0 <EatMoreSplash>
 2006b3c:	e28d0d06 	add	r0, sp, #384	; 0x180
 2006b40:	ebfff333 	bl	2003814 <isPictureFileSupported>
 2006b44:	e2506000 	subs	r6, r0, #0
 2006b48:	058d6018 	streq	r6, [sp, #24]
 2006b4c:	0afffed9 	beq	20066b8 <BrowsePageRun+0x80>
 2006b50:	e30a0f94 	movw	r0, #44948	; 0xaf94
 2006b54:	e3400200 	movt	r0, #512	; 0x200
 2006b58:	ebfff7a0 	bl	20049e0 <ID>
 2006b5c:	e59d6018 	ldr	r6, [sp, #24]
 2006b60:	e58d017c 	str	r0, [sp, #380]	; 0x17c
 2006b64:	e30b0160 	movw	r0, #45408	; 0xb160
 2006b68:	e3400200 	movt	r0, #512	; 0x200
 2006b6c:	ebfff789 	bl	2004998 <Page>
 2006b70:	e5903004 	ldr	r3, [r0, #4]
 2006b74:	e28d0f5f 	add	r0, sp, #380	; 0x17c
 2006b78:	e12fff33 	blx	r3
 2006b7c:	ebfffce5 	bl	2005f18 <ShowBrowsePage.constprop.2>
 2006b80:	eafffecc 	b	20066b8 <BrowsePageRun+0x80>
 2006b84:	e599c008 	ldr	ip, [r9, #8]
 2006b88:	e2803010 	add	r3, r0, #16
 2006b8c:	e59f20ec 	ldr	r2, [pc, #236]	; 2006c80 <BrowsePageRun+0x648>
 2006b90:	e1a07004 	mov	r7, r4
 2006b94:	e08ce001 	add	lr, ip, r1
 2006b98:	e3a06001 	mov	r6, #1
 2006b9c:	e79c0001 	ldr	r0, [ip, r1]
 2006ba0:	e59e1004 	ldr	r1, [lr, #4]
 2006ba4:	ebfff6e7 	bl	2004748 <PicMerge>
 2006ba8:	eafffec2 	b	20066b8 <BrowsePageRun+0x80>
 2006bac:	e59f40bc 	ldr	r4, [pc, #188]	; 2006c70 <BrowsePageRun+0x638>
 2006bb0:	e3a01c01 	mov	r1, #256	; 0x100
 2006bb4:	e58d3000 	str	r3, [sp]
 2006bb8:	e30a2dbc 	movw	r2, #44476	; 0xadbc
 2006bbc:	e28d007c 	add	r0, sp, #124	; 0x7c
 2006bc0:	e3402200 	movt	r2, #512	; 0x200
 2006bc4:	e1a03004 	mov	r3, r4
 2006bc8:	ebffe94d 	bl	2001104 <snprintf@plt>
 2006bcc:	e59dc018 	ldr	ip, [sp, #24]
 2006bd0:	e3a03fea 	mov	r3, #936	; 0x3a8
 2006bd4:	e58d4000 	str	r4, [sp]
 2006bd8:	e30a2a4c 	movw	r2, #43596	; 0xaa4c
 2006bdc:	e30b1134 	movw	r1, #45364	; 0xb134
 2006be0:	e3402200 	movt	r2, #512	; 0x200
 2006be4:	e3401200 	movt	r1, #512	; 0x200
 2006be8:	e30b0144 	movw	r0, #45380	; 0xb144
 2006bec:	e3400200 	movt	r0, #512	; 0x200
 2006bf0:	e5cdc17b 	strb	ip, [sp, #379]	; 0x17b
 2006bf4:	ebffe993 	bl	2001248 <printf@plt>
 2006bf8:	e28d107c 	add	r1, sp, #124	; 0x7c
 2006bfc:	e1a00004 	mov	r0, r4
 2006c00:	ebffe963 	bl	2001194 <strcpy@plt>
 2006c04:	e5991078 	ldr	r1, [r9, #120]	; 0x78
 2006c08:	e5990000 	ldr	r0, [r9]
 2006c0c:	eb00059e 	bl	200828c <FreeDirContents>
 2006c10:	e59f2054 	ldr	r2, [pc, #84]	; 2006c6c <BrowsePageRun+0x634>
 2006c14:	e1a00004 	mov	r0, r4
 2006c18:	e2421078 	sub	r1, r2, #120	; 0x78
 2006c1c:	eb0004f1 	bl	2007fe8 <GetDirContents>
 2006c20:	e2506000 	subs	r6, r0, #0
 2006c24:	1a000006 	bne	2006c44 <BrowsePageRun+0x60c>
 2006c28:	e59d3020 	ldr	r3, [sp, #32]
 2006c2c:	e5992000 	ldr	r2, [r9]
 2006c30:	e5991078 	ldr	r1, [r9, #120]	; 0x78
 2006c34:	e58d6018 	str	r6, [sp, #24]
 2006c38:	e5896004 	str	r6, [r9, #4]
 2006c3c:	ebfffc5c 	bl	2005db4 <GenerateBrowsePageDirAndFile>
 2006c40:	eafffe9c 	b	20066b8 <BrowsePageRun+0x80>
 2006c44:	e30b0118 	movw	r0, #45336	; 0xb118
 2006c48:	e3400200 	movt	r0, #512	; 0x200
 2006c4c:	ebfff107 	bl	2003070 <DebugPrint>
 2006c50:	e28ddfa1 	add	sp, sp, #644	; 0x284
 2006c54:	e8bd8ff0 	pop	{r4, r5, r6, r7, r8, r9, sl, fp, pc}
 2006c58:	e59d3020 	ldr	r3, [sp, #32]
 2006c5c:	e3a06000 	mov	r6, #0
 2006c60:	e5992000 	ldr	r2, [r9]
 2006c64:	ebfffc52 	bl	2005db4 <GenerateBrowsePageDirAndFile>
 2006c68:	eafffe92 	b	20066b8 <BrowsePageRun+0x80>
 2006c6c:	0201cae8 	andeq	ip, r1, #232, 20	; 0xe8000
 2006c70:	0201c4a0 	andeq	ip, r1, #160, 8	; 0xa0000000
 2006c74:	0201c43c 	andeq	ip, r1, #60, 8	; 0x3c000000
 2006c78:	0201c450 	andeq	ip, r1, #80, 8	; 0x50000000
 2006c7c:	0201c5a0 	andeq	ip, r1, #160, 10	; 0x28000000
 2006c80:	0201cad0 	andeq	ip, r1, #208, 20	; 0xd0000

02006c84 <GetSelectedDir>:
 2006c84:	e3a02c01 	mov	r2, #256	; 0x100
 2006c88:	e59f1010 	ldr	r1, [pc, #16]	; 2006ca0 <GetSelectedDir+0x1c>
 2006c8c:	e92d4010 	push	{r4, lr}
 2006c90:	ebffe975 	bl	200126c <strncpy@plt>
 2006c94:	e3a02000 	mov	r2, #0
 2006c98:	e5c020ff 	strb	r2, [r0, #255]	; 0xff
 2006c9c:	e8bd8010 	pop	{r4, pc}
 2006ca0:	0201c5a0 	andeq	ip, r1, #160, 10	; 0x28000000

02006ca4 <BrowsePageInit>:
 2006ca4:	e59f0000 	ldr	r0, [pc]	; 2006cac <BrowsePageInit+0x8>
 2006ca8:	eafff718 	b	2004910 <RegisterPageAction>
 2006cac:	0201c6a0 	andeq	ip, r1, #160, 12	; 0xa000000

02006cb0 <AutoPageRun>:
 2006cb0:	e92d40f0 	push	{r4, r5, r6, r7, lr}
 2006cb4:	e30c5aec 	movw	r5, #51948	; 0xcaec
 2006cb8:	e3405201 	movt	r5, #513	; 0x201
 2006cbc:	e1a06000 	mov	r6, r0
 2006cc0:	e3a07000 	mov	r7, #0
 2006cc4:	e24dd02c 	sub	sp, sp, #44	; 0x2c
 2006cc8:	e1a04005 	mov	r4, r5
 2006ccc:	e4847004 	str	r7, [r4], #4
 2006cd0:	e1a00004 	mov	r0, r4
 2006cd4:	ebfff7dc 	bl	2004c4c <GetPageCfg>
 2006cd8:	e5d63004 	ldrb	r3, [r6, #4]
 2006cdc:	e1530007 	cmp	r3, r7
 2006ce0:	1a000014 	bne	2006d38 <AutoPageRun+0x88>
 2006ce4:	e3a03000 	mov	r3, #0
 2006ce8:	e3072004 	movw	r2, #28676	; 0x7004
 2006cec:	e1a01003 	mov	r1, r3
 2006cf0:	e3402200 	movt	r2, #512	; 0x200
 2006cf4:	e59f0070 	ldr	r0, [pc, #112]	; 2006d6c <AutoPageRun+0xbc>
 2006cf8:	ebffe92b 	bl	20011ac <pthread_create@plt>
 2006cfc:	e1a0000d 	mov	r0, sp
 2006d00:	ebfff006 	bl	2002d20 <GetInputEvent>
 2006d04:	e2504000 	subs	r4, r0, #0
 2006d08:	1afffffb 	bne	2006cfc <AutoPageRun+0x4c>
 2006d0c:	e59f005c 	ldr	r0, [pc, #92]	; 2006d70 <AutoPageRun+0xc0>
 2006d10:	ebffe985 	bl	200132c <pthread_mutex_lock@plt>
 2006d14:	e59f0054 	ldr	r0, [pc, #84]	; 2006d70 <AutoPageRun+0xc0>
 2006d18:	e3a03001 	mov	r3, #1
 2006d1c:	e5853000 	str	r3, [r5]
 2006d20:	ebffe978 	bl	2001308 <pthread_mutex_unlock@plt>
 2006d24:	e1a01004 	mov	r1, r4
 2006d28:	e5950108 	ldr	r0, [r5, #264]	; 0x108
 2006d2c:	ebffe912 	bl	200117c <pthread_join@plt>
 2006d30:	e28dd02c 	add	sp, sp, #44	; 0x2c
 2006d34:	e8bd80f0 	pop	{r4, r5, r6, r7, pc}
 2006d38:	e2861004 	add	r1, r6, #4
 2006d3c:	e2850008 	add	r0, r5, #8
 2006d40:	ebffe913 	bl	2001194 <strcpy@plt>
 2006d44:	e3a0102f 	mov	r1, #47	; 0x2f
 2006d48:	e2850008 	add	r0, r5, #8
 2006d4c:	ebffe913 	bl	20011a0 <strrchr@plt>
 2006d50:	e3500000 	cmp	r0, #0
 2006d54:	15c07000 	strbne	r7, [r0]
 2006d58:	e5d53008 	ldrb	r3, [r5, #8]
 2006d5c:	e3530000 	cmp	r3, #0
 2006d60:	03a0302f 	moveq	r3, #47	; 0x2f
 2006d64:	01c430b4 	strheq	r3, [r4, #4]
 2006d68:	eaffffdd 	b	2006ce4 <AutoPageRun+0x34>
 2006d6c:	0201cbf4 	andeq	ip, r1, #244, 22	; 0x3d000
 2006d70:	0201cbf8 	andeq	ip, r1, #248, 22	; 0x3e000

02006d74 <PrepareNextPicture>:
 2006d74:	e92d4ff0 	push	{r4, r5, r6, r7, r8, r9, sl, fp, lr}
 2006d78:	e24ddf55 	sub	sp, sp, #340	; 0x154
 2006d7c:	e1a04000 	mov	r4, r0
 2006d80:	e28d201c 	add	r2, sp, #28
 2006d84:	e28d1018 	add	r1, sp, #24
 2006d88:	e28d0014 	add	r0, sp, #20
 2006d8c:	ebffea74 	bl	2001764 <GetDispResolution>
 2006d90:	e1a01004 	mov	r1, r4
 2006d94:	e3e00000 	mvn	r0, #0
 2006d98:	ebffeadc 	bl	2001910 <GetVideoMem>
 2006d9c:	e2503000 	subs	r3, r0, #0
 2006da0:	e58d300c 	str	r3, [sp, #12]
 2006da4:	0a00008b 	beq	2006fd8 <PrepareNextPicture+0x264>
 2006da8:	e30d1bb5 	movw	r1, #56245	; 0xdbb5
 2006dac:	e34010e7 	movt	r1, #231	; 0xe7
 2006db0:	ebffeb2d 	bl	2001a6c <ClearVideoMem>
 2006db4:	e30c4aec 	movw	r4, #51948	; 0xcaec
 2006db8:	e3404201 	movt	r4, #513	; 0x201
 2006dbc:	e2847f4b 	add	r7, r4, #300	; 0x12c
 2006dc0:	e284af4a 	add	sl, r4, #296	; 0x128
 2006dc4:	e2849eb3 	add	r9, r4, #2864	; 0xb30
 2006dc8:	e2848008 	add	r8, r4, #8
 2006dcc:	e5945124 	ldr	r5, [r4, #292]	; 0x124
 2006dd0:	e3a0b00a 	mov	fp, #10
 2006dd4:	e594e128 	ldr	lr, [r4, #296]	; 0x128
 2006dd8:	e1a00008 	mov	r0, r8
 2006ddc:	e59f2214 	ldr	r2, [pc, #532]	; 2006ff8 <PrepareNextPicture+0x284>
 2006de0:	e3a0c000 	mov	ip, #0
 2006de4:	e155000e 	cmp	r5, lr
 2006de8:	e59f320c 	ldr	r3, [pc, #524]	; 2006ffc <PrepareNextPicture+0x288>
 2006dec:	e2821004 	add	r1, r2, #4
 2006df0:	e28d6050 	add	r6, sp, #80	; 0x50
 2006df4:	ba00001e 	blt	2006e74 <PrepareNextPicture+0x100>
 2006df8:	e58d7004 	str	r7, [sp, #4]
 2006dfc:	e58db000 	str	fp, [sp]
 2006e00:	e584cb2c 	str	ip, [r4, #2860]	; 0xb2c
 2006e04:	e584c128 	str	ip, [r4, #296]	; 0x128
 2006e08:	e584c124 	str	ip, [r4, #292]	; 0x124
 2006e0c:	eb00052b 	bl	20082c0 <GetFilesIndir>
 2006e10:	e3a0c000 	mov	ip, #0
 2006e14:	e1a0300a 	mov	r3, sl
 2006e18:	e1a01009 	mov	r1, r9
 2006e1c:	e3a0e00a 	mov	lr, #10
 2006e20:	e59f21d0 	ldr	r2, [pc, #464]	; 2006ff8 <PrepareNextPicture+0x284>
 2006e24:	e150000c 	cmp	r0, ip
 2006e28:	e59f01d0 	ldr	r0, [pc, #464]	; 2007000 <PrepareNextPicture+0x28c>
 2006e2c:	1a000003 	bne	2006e40 <PrepareNextPicture+0xcc>
 2006e30:	e5945124 	ldr	r5, [r4, #292]	; 0x124
 2006e34:	e594b128 	ldr	fp, [r4, #296]	; 0x128
 2006e38:	e155000b 	cmp	r5, fp
 2006e3c:	ba00000c 	blt	2006e74 <PrepareNextPicture+0x100>
 2006e40:	e58d7004 	str	r7, [sp, #4]
 2006e44:	e58de000 	str	lr, [sp]
